

Microchip Technology PIC18 LITE Macro Assembler V1.38 build -256452561 
                                                                                               Sat May 26 01:25:47 2018

Microchip Technology Omniscient Code Generator v1.38 (Free mode) build 201607010351
     1                           	processor	18F14K50
     2                           	fnconf	rparam,??,?,0
     3                           	opt	pw 120
     4                           	opt	lm
     5                           	psect	mediumconst,global,reloc=2,class=MEDIUMCONST,delta=1
     6                           	psect	nvBANK0,global,class=BANK0,space=1,delta=1
     7                           	psect	cinit,global,reloc=2,class=CODE,delta=1
     8                           	psect	bssCOMRAM,global,class=COMRAM,space=1,delta=1
     9                           	psect	bssBANK0,global,class=BANK0,space=1,delta=1
    10                           	psect	bssBANK1,global,class=BANK1,space=1,delta=1
    11                           	psect	cstackBANK0,global,class=BANK0,space=1,delta=1
    12                           	psect	cstackCOMRAM,global,class=COMRAM,space=1,delta=1
    13                           	psect	text0,global,reloc=2,class=CODE,delta=1
    14                           	psect	text1,global,reloc=2,class=CODE,delta=1
    15                           	psect	text2,global,reloc=2,class=CODE,delta=1
    16                           	psect	text3,global,reloc=2,class=CODE,delta=1
    17                           	psect	text4,global,reloc=2,class=CODE,delta=1
    18                           	psect	text5,global,reloc=2,class=CODE,delta=1
    19                           	psect	text6,global,reloc=2,class=CODE,delta=1
    20                           	psect	text7,global,reloc=2,class=CODE,delta=1
    21                           	psect	text8,global,reloc=2,class=CODE,delta=1
    22                           	psect	text9,global,reloc=2,class=CODE,delta=1
    23                           	psect	text10,global,reloc=2,class=CODE,delta=1
    24                           	psect	text11,global,reloc=2,class=CODE,delta=1
    25                           	psect	text12,global,reloc=2,class=CODE,delta=1
    26                           	psect	text13,global,reloc=2,class=CODE,delta=1
    27                           	psect	text14,global,reloc=2,class=CODE,delta=1
    28                           	psect	text15,global,reloc=2,class=CODE,delta=1
    29                           	psect	text16,global,reloc=2,class=CODE,delta=1
    30                           	psect	text17,global,reloc=2,class=CODE,delta=1
    31                           	psect	text18,global,reloc=2,class=CODE,delta=1
    32                           	psect	text19,global,reloc=2,class=CODE,delta=1
    33                           	psect	text20,global,reloc=2,class=CODE,delta=1
    34                           	psect	text21,global,reloc=2,class=CODE,delta=1
    35                           	psect	text22,global,reloc=2,class=CODE,delta=1
    36                           	psect	intcode,global,reloc=2,class=CODE,delta=1
    37                           	psect	text24,global,reloc=2,class=CODE,delta=1
    38                           	psect	text25,global,reloc=2,class=CODE,delta=1
    39                           	psect	text26,global,reloc=2,class=CODE,delta=1
    40                           	psect	text27,global,reloc=2,class=CODE,delta=1
    41                           	psect	text28,global,reloc=2,class=CODE,delta=1
    42                           	psect	text29,global,reloc=2,class=CODE,delta=1
    43                           	psect	text30,global,reloc=2,class=CODE,delta=1
    44                           	psect	text31,global,reloc=2,class=CODE,delta=1
    45                           	psect	text32,global,reloc=2,class=CODE,delta=1
    46                           	psect	text33,global,reloc=2,class=CODE,delta=1
    47                           	psect	text34,global,reloc=2,class=CODE,delta=1
    48                           	psect	text35,global,reloc=2,class=CODE,delta=1
    49                           	psect	text36,global,reloc=2,class=CODE,delta=1
    50                           	psect	text37,global,reloc=2,class=CODE,delta=1
    51                           	psect	text38,global,reloc=2,class=CODE,delta=1
    52                           	psect	text39,global,reloc=2,class=CODE,delta=1
    53                           	psect	text40,global,reloc=2,class=CODE,delta=1
    54                           	psect	text41,global,reloc=2,class=CODE,delta=1
    55                           	psect	text42,global,reloc=2,class=CODE,delta=1
    56                           	psect	text43,global,reloc=2,class=CODE,delta=1
    57                           	psect	text44,global,reloc=2,class=CODE,delta=1
    58                           	psect	text45,global,reloc=2,class=CODE,delta=1
    59                           	psect	text46,global,reloc=2,class=CODE,delta=1
    60                           	psect	text47,global,reloc=2,class=CODE,delta=1
    61                           	psect	text48,global,reloc=2,class=CODE,delta=1
    62                           	psect	text49,global,reloc=2,class=CODE,delta=1
    63                           	psect	text50,global,reloc=2,class=CODE,delta=1
    64                           	psect	text51,global,reloc=2,class=CODE,delta=1
    65                           	psect	text52,global,reloc=2,class=CODE,delta=1
    66                           	psect	intsave_regs,global,class=BIGRAM,space=1,delta=1
    67                           	psect	rparam,global,class=COMRAM,space=1,delta=1
    68                           	psect	temp,global,ovrld,common,class=COMRAM,space=1,delta=1
    69                           	dabs	1,0x280,128,_USB_OutPacket
    70                           	dabs	1,0x240,64,_USB_InPacket
    71                           	dabs	1,0x238,8,_CtrlTrfData
    72                           	dabs	1,0x200,48,_BDT
    73                           	dabs	1,0x230,8,_SetupPkt
    74  0000                     
    75                           	psect	mediumconst
    76  003E86                     __pmediumconst:
    77                           	opt stack 0
    78  003E86  00                 	db	0
    79  003E87                     _REV:
    80                           	opt stack 0
    81  003E87  00                 	db	0
    82  003E88  80                 	db	128
    83  003E89  40                 	db	64
    84  003E8A  C0                 	db	192
    85  003E8B  20                 	db	32
    86  003E8C  A0                 	db	160
    87  003E8D  60                 	db	96
    88  003E8E  E0                 	db	224
    89  003E8F  10                 	db	16
    90  003E90  90                 	db	144
    91  003E91  50                 	db	80
    92  003E92  D0                 	db	208
    93  003E93  30                 	db	48
    94  003E94  B0                 	db	176
    95  003E95  70                 	db	112
    96  003E96  F0                 	db	240
    97  003E97  08                 	db	8
    98  003E98  88                 	db	136
    99  003E99  48                 	db	72
   100  003E9A  C8                 	db	200
   101  003E9B  28                 	db	40
   102  003E9C  A8                 	db	168
   103  003E9D  68                 	db	104
   104  003E9E  E8                 	db	232
   105  003E9F  18                 	db	24
   106  003EA0  98                 	db	152
   107  003EA1  58                 	db	88
   108  003EA2  D8                 	db	216
   109  003EA3  38                 	db	56
   110  003EA4  B8                 	db	184
   111  003EA5  78                 	db	120
   112  003EA6  F8                 	db	248
   113  003EA7  04                 	db	4
   114  003EA8  84                 	db	132
   115  003EA9  44                 	db	68
   116  003EAA  C4                 	db	196
   117  003EAB  24                 	db	36
   118  003EAC  A4                 	db	164
   119  003EAD  64                 	db	100
   120  003EAE  E4                 	db	228
   121  003EAF  14                 	db	20
   122  003EB0  94                 	db	148
   123  003EB1  54                 	db	84
   124  003EB2  D4                 	db	212
   125  003EB3  34                 	db	52
   126  003EB4  B4                 	db	180
   127  003EB5  74                 	db	116
   128  003EB6  F4                 	db	244
   129  003EB7  0C                 	db	12
   130  003EB8  8C                 	db	140
   131  003EB9  4C                 	db	76
   132  003EBA  CC                 	db	204
   133  003EBB  2C                 	db	44
   134  003EBC  AC                 	db	172
   135  003EBD  6C                 	db	108
   136  003EBE  EC                 	db	236
   137  003EBF  1C                 	db	28
   138  003EC0  9C                 	db	156
   139  003EC1  5C                 	db	92
   140  003EC2  DC                 	db	220
   141  003EC3  3C                 	db	60
   142  003EC4  BC                 	db	188
   143  003EC5  7C                 	db	124
   144  003EC6  FC                 	db	252
   145  003EC7  02                 	db	2
   146  003EC8  82                 	db	130
   147  003EC9  42                 	db	66
   148  003ECA  C2                 	db	194
   149  003ECB  22                 	db	34
   150  003ECC  A2                 	db	162
   151  003ECD  62                 	db	98
   152  003ECE  E2                 	db	226
   153  003ECF  12                 	db	18
   154  003ED0  92                 	db	146
   155  003ED1  52                 	db	82
   156  003ED2  D2                 	db	210
   157  003ED3  32                 	db	50
   158  003ED4  B2                 	db	178
   159  003ED5  72                 	db	114
   160  003ED6  F2                 	db	242
   161  003ED7  0A                 	db	10
   162  003ED8  8A                 	db	138
   163  003ED9  4A                 	db	74
   164  003EDA  CA                 	db	202
   165  003EDB  2A                 	db	42
   166  003EDC  AA                 	db	170
   167  003EDD  6A                 	db	106
   168  003EDE  EA                 	db	234
   169  003EDF  1A                 	db	26
   170  003EE0  9A                 	db	154
   171  003EE1  5A                 	db	90
   172  003EE2  DA                 	db	218
   173  003EE3  3A                 	db	58
   174  003EE4  BA                 	db	186
   175  003EE5  7A                 	db	122
   176  003EE6  FA                 	db	250
   177  003EE7  06                 	db	6
   178  003EE8  86                 	db	134
   179  003EE9  46                 	db	70
   180  003EEA  C6                 	db	198
   181  003EEB  26                 	db	38
   182  003EEC  A6                 	db	166
   183  003EED  66                 	db	102
   184  003EEE  E6                 	db	230
   185  003EEF  16                 	db	22
   186  003EF0  96                 	db	150
   187  003EF1  56                 	db	86
   188  003EF2  D6                 	db	214
   189  003EF3  36                 	db	54
   190  003EF4  B6                 	db	182
   191  003EF5  76                 	db	118
   192  003EF6  F6                 	db	246
   193  003EF7  0E                 	db	14
   194  003EF8  8E                 	db	142
   195  003EF9  4E                 	db	78
   196  003EFA  CE                 	db	206
   197  003EFB  2E                 	db	46
   198  003EFC  AE                 	db	174
   199  003EFD  6E                 	db	110
   200  003EFE  EE                 	db	238
   201  003EFF  1E                 	db	30
   202  003F00  9E                 	db	158
   203  003F01  5E                 	db	94
   204  003F02  DE                 	db	222
   205  003F03  3E                 	db	62
   206  003F04  BE                 	db	190
   207  003F05  7E                 	db	126
   208  003F06  FE                 	db	254
   209  003F07  01                 	db	1
   210  003F08  81                 	db	129
   211  003F09  41                 	db	65
   212  003F0A  C1                 	db	193
   213  003F0B  21                 	db	33
   214  003F0C  A1                 	db	161
   215  003F0D  61                 	db	97
   216  003F0E  E1                 	db	225
   217  003F0F  11                 	db	17
   218  003F10  91                 	db	145
   219  003F11  51                 	db	81
   220  003F12  D1                 	db	209
   221  003F13  31                 	db	49
   222  003F14  B1                 	db	177
   223  003F15  71                 	db	113
   224  003F16  F1                 	db	241
   225  003F17  09                 	db	9
   226  003F18  89                 	db	137
   227  003F19  49                 	db	73
   228  003F1A  C9                 	db	201
   229  003F1B  29                 	db	41
   230  003F1C  A9                 	db	169
   231  003F1D  69                 	db	105
   232  003F1E  E9                 	db	233
   233  003F1F  19                 	db	25
   234  003F20  99                 	db	153
   235  003F21  59                 	db	89
   236  003F22  D9                 	db	217
   237  003F23  39                 	db	57
   238  003F24  B9                 	db	185
   239  003F25  79                 	db	121
   240  003F26  F9                 	db	249
   241  003F27  05                 	db	5
   242  003F28  85                 	db	133
   243  003F29  45                 	db	69
   244  003F2A  C5                 	db	197
   245  003F2B  25                 	db	37
   246  003F2C  A5                 	db	165
   247  003F2D  65                 	db	101
   248  003F2E  E5                 	db	229
   249  003F2F  15                 	db	21
   250  003F30  95                 	db	149
   251  003F31  55                 	db	85
   252  003F32  D5                 	db	213
   253  003F33  35                 	db	53
   254  003F34  B5                 	db	181
   255  003F35  75                 	db	117
   256  003F36  F5                 	db	245
   257  003F37  0D                 	db	13
   258  003F38  8D                 	db	141
   259  003F39  4D                 	db	77
   260  003F3A  CD                 	db	205
   261  003F3B  2D                 	db	45
   262  003F3C  AD                 	db	173
   263  003F3D  6D                 	db	109
   264  003F3E  ED                 	db	237
   265  003F3F  1D                 	db	29
   266  003F40  9D                 	db	157
   267  003F41  5D                 	db	93
   268  003F42  DD                 	db	221
   269  003F43  3D                 	db	61
   270  003F44  BD                 	db	189
   271  003F45  7D                 	db	125
   272  003F46  FD                 	db	253
   273  003F47  03                 	db	3
   274  003F48  83                 	db	131
   275  003F49  43                 	db	67
   276  003F4A  C3                 	db	195
   277  003F4B  23                 	db	35
   278  003F4C  A3                 	db	163
   279  003F4D  63                 	db	99
   280  003F4E  E3                 	db	227
   281  003F4F  13                 	db	19
   282  003F50  93                 	db	147
   283  003F51  53                 	db	83
   284  003F52  D3                 	db	211
   285  003F53  33                 	db	51
   286  003F54  B3                 	db	179
   287  003F55  73                 	db	115
   288  003F56  F3                 	db	243
   289  003F57  0B                 	db	11
   290  003F58  8B                 	db	139
   291  003F59  4B                 	db	75
   292  003F5A  CB                 	db	203
   293  003F5B  2B                 	db	43
   294  003F5C  AB                 	db	171
   295  003F5D  6B                 	db	107
   296  003F5E  EB                 	db	235
   297  003F5F  1B                 	db	27
   298  003F60  9B                 	db	155
   299  003F61  5B                 	db	91
   300  003F62  DB                 	db	219
   301  003F63  3B                 	db	59
   302  003F64  BB                 	db	187
   303  003F65  7B                 	db	123
   304  003F66  FB                 	db	251
   305  003F67  07                 	db	7
   306  003F68  87                 	db	135
   307  003F69  47                 	db	71
   308  003F6A  C7                 	db	199
   309  003F6B  27                 	db	39
   310  003F6C  A7                 	db	167
   311  003F6D  67                 	db	103
   312  003F6E  E7                 	db	231
   313  003F6F  17                 	db	23
   314  003F70  97                 	db	151
   315  003F71  57                 	db	87
   316  003F72  D7                 	db	215
   317  003F73  37                 	db	55
   318  003F74  B7                 	db	183
   319  003F75  77                 	db	119
   320  003F76  F7                 	db	247
   321  003F77  0F                 	db	15
   322  003F78  8F                 	db	143
   323  003F79  4F                 	db	79
   324  003F7A  CF                 	db	207
   325  003F7B  2F                 	db	47
   326  003F7C  AF                 	db	175
   327  003F7D  6F                 	db	111
   328  003F7E  EF                 	db	239
   329  003F7F  1F                 	db	31
   330  003F80  9F                 	db	159
   331  003F81  5F                 	db	95
   332  003F82  DF                 	db	223
   333  003F83  3F                 	db	63
   334  003F84  BF                 	db	191
   335  003F85  7F                 	db	127
   336  003F86  FF                 	db	255
   337  003F87                     __end_of_REV:
   338                           	opt stack 0
   339  003F87                     _USB_SD_Ptr:
   340                           	opt stack 0
   341  003F87  FB                 	db	low _sd000
   342  003F88  3F                 	db	high _sd000
   343  003F89  ED                 	db	low _sd001
   344  003F8A  3F                 	db	high _sd001
   345  003F8B  B1                 	db	low _sd002
   346  003F8C  3F                 	db	high _sd002
   347  003F8D  DB                 	db	low _sd003
   348  003F8E  3F                 	db	high _sd003
   349  003F8F                     __end_of_USB_SD_Ptr:
   350                           	opt stack 0
   351  003F8F                     _USB_CD_Ptr:
   352                           	opt stack 0
   353  003F8F  91                 	db	low _configDescriptor1
   354  003F90  3F                 	db	high _configDescriptor1
   355  003F91                     __end_of_USB_CD_Ptr:
   356                           	opt stack 0
   357  003F91                     _configDescriptor1:
   358                           	opt stack 0
   359  003F91  09                 	db	9
   360  003F92  02                 	db	2
   361  003F93  20                 	db	32
   362  003F94  00                 	db	0
   363  003F95  01                 	db	1
   364  003F96  01                 	db	1
   365  003F97  00                 	db	0
   366  003F98  C0                 	db	192
   367  003F99  32                 	db	50
   368  003F9A  09                 	db	9
   369  003F9B  04                 	db	4
   370  003F9C  00                 	db	0
   371  003F9D  00                 	db	0
   372  003F9E  02                 	db	2
   373  003F9F  FF                 	db	255
   374  003FA0  FF                 	db	255
   375  003FA1  FF                 	db	255
   376  003FA2  00                 	db	0
   377  003FA3  07                 	db	7
   378  003FA4  05                 	db	5
   379  003FA5  81                 	db	129
   380  003FA6  02                 	db	2
   381  003FA7  40                 	db	64
   382  003FA8  00                 	db	0
   383  003FA9  01                 	db	1
   384  003FAA  07                 	db	7
   385  003FAB  05                 	db	5
   386  003FAC  02                 	db	2
   387  003FAD  02                 	db	2
   388  003FAE  40                 	db	64
   389  003FAF  00                 	db	0
   390  003FB0  01                 	db	1
   391  003FB1                     __end_of_configDescriptor1:
   392                           	opt stack 0
   393  003FB1                     _sd002:
   394                           	opt stack 0
   395  003FB1  18                 	db	24
   396  003FB2  03                 	db	3
   397  003FB3  0055               	dw	85
   398  003FB5  0053               	dw	83
   399  003FB7  0042               	dw	66
   400  003FB9  002D               	dw	45
   401  003FBB  0042               	dw	66
   402  003FBD  006C               	dw	108
   403  003FBF  0061               	dw	97
   404  003FC1  0073               	dw	115
   405  003FC3  0074               	dw	116
   406  003FC5  0065               	dw	101
   407  003FC7  0072               	dw	114
   408  003FC9                     __end_of_sd002:
   409                           	opt stack 0
   410  003FC9                     _device_dsc:
   411                           	opt stack 0
   412  003FC9  12                 	db	18
   413  003FCA  01                 	db	1
   414  003FCB  0110               	dw	272
   415  003FCD  00                 	db	0
   416  003FCE  00                 	db	0
   417  003FCF  00                 	db	0
   418  003FD0  08                 	db	8
   419  003FD1  09FB               	dw	2555
   420  003FD3  6001               	dw	24577
   421  003FD5  0400               	dw	1024
   422  003FD7  01                 	db	1
   423  003FD8  02                 	db	2
   424  003FD9  03                 	db	3
   425  003FDA  01                 	db	1
   426  003FDB                     __end_of_device_dsc:
   427                           	opt stack 0
   428  003FDB                     _sd003:
   429                           	opt stack 0
   430  003FDB  12                 	db	18
   431  003FDC  03                 	db	3
   432  003FDD  0030               	dw	48
   433  003FDF  0030               	dw	48
   434  003FE1  0030               	dw	48
   435  003FE3  0030               	dw	48
   436  003FE5  0030               	dw	48
   437  003FE7  0030               	dw	48
   438  003FE9  0030               	dw	48
   439  003FEB  0030               	dw	48
   440  003FED                     __end_of_sd003:
   441                           	opt stack 0
   442  003FED                     _sd001:
   443                           	opt stack 0
   444  003FED  0E                 	db	14
   445  003FEE  03                 	db	3
   446  003FEF  0041               	dw	65
   447  003FF1  006C               	dw	108
   448  003FF3  0074               	dw	116
   449  003FF5  0065               	dw	101
   450  003FF7  0072               	dw	114
   451  003FF9  0061               	dw	97
   452  003FFB                     __end_of_sd001:
   453                           	opt stack 0
   454  003FFB                     _sd000:
   455                           	opt stack 0
   456  003FFB  04                 	db	4
   457  003FFC  03                 	db	3
   458  003FFD  0409               	dw	1033
   459  003FFF                     __end_of_sd000:
   460                           	opt stack 0
   461  003FFF  00                 	db	0	; dummy byte at the end
   462  0000                     
   463                           	psect	nvBANK0
   464  00009A                     __pnvBANK0:
   465                           	opt stack 0
   466  00009A                     _eeprom_checksum:
   467                           	opt stack 0
   468  00009A                     	ds	2
   469  0000                     _UADDR	set	3932
   470  0000                     _UEIE	set	3931
   471  0000                     _UEIR	set	3935
   472  0000                     _UEP0bits	set	3923
   473  0000                     _UEP0	set	3923
   474  0000                     _UEP1	set	3924
   475  0000                     _ANSEL	set	3966
   476  0000                     _ANSELH	set	3967
   477  0000                     _CCP1CON	set	4029
   478  0000                     _CCPR1L	set	4030
   479  0000                     _INTCONbits	set	4082
   480  0000                     _IPR2bits	set	4002
   481  0000                     _LATBbits	set	3978
   482  0000                     _LATCbits	set	3979
   483  0000                     _PIE2bits	set	4000
   484  0000                     _PIR2bits	set	4001
   485  0000                     _PORTBbits	set	3969
   486  0000                     _PR2	set	4043
   487  0000                     _PSTRCON	set	4025
   488  0000                     _RCONbits	set	4048
   489  0000                     _SLRCON	set	3958
   490  0000                     _SSPBUF	set	4041
   491  0000                     _SSPCON1	set	4038
   492  0000                     _SSPCON1bits	set	4038
   493  0000                     _SSPSTAT	set	4039
   494  0000                     _SSPSTATbits	set	4039
   495  0000                     _T0CON	set	4053
   496  0000                     _T2CON	set	4042
   497  0000                     _TMR0H	set	4055
   498  0000                     _TMR0L	set	4054
   499  0000                     _TMR2	set	4044
   500  0000                     _TRISB	set	3987
   501  0000                     _TRISBbits	set	3987
   502  0000                     _TRISC	set	3988
   503  0000                     _UCFG	set	3937
   504  0000                     _UCON	set	3940
   505  0000                     _UCONbits	set	3940
   506  0000                     _UIE	set	3936
   507  0000                     _UIEbits	set	3936
   508  0000                     _UIR	set	3938
   509  0000                     _UIRbits	set	3938
   510  0000                     _USTAT	set	3939
   511                           
   512                           ; #config settings
   513  0000                     
   514                           	psect	cinit
   515  0020B4                     __pcinit:
   516                           	opt stack 0
   517  0020B4                     start_initialization:
   518                           	opt stack 0
   519  0020B4                     __initialization:
   520                           	opt stack 0
   521                           
   522                           ; Clear objects allocated to BANK1 (256 bytes)
   523  0020B4  EE01  F000         	lfsr	0,__pbssBANK1
   524  0020B8  EE11 F000          	lfsr	1,256
   525  0020BC                     clear_0:
   526  0020BC  6AEE               	clrf	postinc0,c
   527  0020BE  50E5               	movf	postdec1,w,c
   528  0020C0  50E1               	movf	fsr1l,w,c
   529  0020C2  E1FC               	bnz	clear_0
   530  0020C4  50E2               	movf	fsr1h,w,c
   531  0020C6  E1FA               	bnz	clear_0
   532                           
   533                           ; Clear objects allocated to BANK0 (41 bytes)
   534  0020C8  EE00  F060         	lfsr	0,__pbssBANK0
   535  0020CC  0E29               	movlw	41
   536  0020CE                     clear_1:
   537  0020CE  6AEE               	clrf	postinc0,c
   538  0020D0  06E8               	decf	wreg,f,c
   539  0020D2  E1FD               	bnz	clear_1
   540                           
   541                           ; Clear objects allocated to COMRAM (31 bytes)
   542  0020D4  EE00  F033         	lfsr	0,__pbssCOMRAM
   543  0020D8  0E1F               	movlw	31
   544  0020DA                     clear_2:
   545  0020DA  6AEE               	clrf	postinc0,c
   546  0020DC  06E8               	decf	wreg,f,c
   547  0020DE  E1FD               	bnz	clear_2
   548  0020E0                     end_of_initialization:
   549                           	opt stack 0
   550  0020E0                     __end_of__initialization:
   551                           	opt stack 0
   552  0020E0  9052               	bcf	int$flags,0,c	;clear compiler interrupt flag (level 1)
   553  0020E2  9252               	bcf	int$flags,1,c	;clear compiler interrupt flag (level 2)
   554  0020E4  0E00               	movlw	low (__Lmediumconst shr (0+16))
   555  0020E6  6EF8               	movwf	tblptru,c
   556  0020E8  0100               	movlb	0
   557  0020EA  EFFD  F010         	goto	_main	;jump to C main() function
   558                           tblptru	equ	0xFF8
   559                           postinc0	equ	0xFEE
   560                           wreg	equ	0xFE8
   561                           postdec1	equ	0xFE5
   562                           fsr1h	equ	0xFE2
   563                           fsr1l	equ	0xFE1
   564                           
   565                           	psect	bssCOMRAM
   566  000033                     __pbssCOMRAM:
   567                           	opt stack 0
   568  000033                     _inPipes:
   569                           	opt stack 0
   570  000033                     	ds	6
   571  000039                     _TXFIFO_ocpy:
   572                           	opt stack 0
   573  000039                     	ds	2
   574  00003B                     _pBDTEntryEP0OutCurrent:
   575                           	opt stack 0
   576  00003B                     	ds	2
   577  00003D                     _pBDTEntryEP0OutNext:
   578                           	opt stack 0
   579  00003D                     	ds	2
   580  00003F                     _pDst:
   581                           	opt stack 0
   582  00003F                     	ds	2
   583  000041                     _BothEP0OutUOWNsSet:
   584                           	opt stack 0
   585  000041                     	ds	1
   586  000042                     _RemoteWakeup:
   587                           	opt stack 0
   588  000042                     	ds	1
   589  000043                     _TXFIFO_rp:
   590                           	opt stack 0
   591  000043                     	ds	1
   592  000044                     _TXFIFO_wp:
   593                           	opt stack 0
   594  000044                     	ds	1
   595  000045                     _USBBusIsSuspended:
   596                           	opt stack 0
   597  000045                     	ds	1
   598  000046                     _USBDeferINDataStagePackets:
   599                           	opt stack 0
   600  000046                     	ds	1
   601  000047                     _USBDeferOUTDataStagePackets:
   602                           	opt stack 0
   603  000047                     	ds	1
   604  000048                     _USBDeferStatusStagePacket:
   605                           	opt stack 0
   606  000048                     	ds	1
   607  000049                     _USBStatusStageEnabledFlag1:
   608                           	opt stack 0
   609  000049                     	ds	1
   610  00004A                     _USBStatusStageEnabledFlag2:
   611                           	opt stack 0
   612  00004A                     	ds	1
   613  00004B                     _USBStatusStageTimeoutCounter:
   614                           	opt stack 0
   615  00004B                     	ds	1
   616  00004C                     _controlTransferState:
   617                           	opt stack 0
   618  00004C                     	ds	1
   619  00004D                     _endpoint_number:
   620                           	opt stack 0
   621  00004D                     	ds	1
   622  00004E                     _shortPacketStatus:
   623                           	opt stack 0
   624  00004E                     	ds	1
   625  00004F                     _USBActiveConfiguration:
   626                           	opt stack 0
   627  00004F                     	ds	1
   628  000050                     _USBAlternateInterface:
   629                           	opt stack 0
   630  000050                     	ds	1
   631  000051                     _USTATcopy:
   632                           	opt stack 0
   633  000051                     	ds	1
   634                           tblptru	equ	0xFF8
   635                           postinc0	equ	0xFEE
   636                           wreg	equ	0xFE8
   637                           postdec1	equ	0xFE5
   638                           fsr1h	equ	0xFE2
   639                           fsr1l	equ	0xFE1
   640                           
   641                           	psect	bssBANK0
   642  000060                     __pbssBANK0:
   643                           	opt stack 0
   644  000060                     _outPipes:
   645                           	opt stack 0
   646  000060                     	ds	8
   647  000068                     _pBDTEntryIn:
   648                           	opt stack 0
   649  000068                     	ds	6
   650  00006E                     _pBDTEntryOut:
   651                           	opt stack 0
   652  00006E                     	ds	6
   653  000074                     _ep_data_in:
   654                           	opt stack 0
   655  000074                     	ds	3
   656  000077                     _ep_data_out:
   657                           	opt stack 0
   658  000077                     	ds	3
   659  00007A                     _USB_InHandle0:
   660                           	opt stack 0
   661  00007A                     	ds	2
   662  00007C                     _USB_OutHandle0:
   663                           	opt stack 0
   664  00007C                     	ds	2
   665  00007E                     _USB_OutHandle1:
   666                           	opt stack 0
   667  00007E                     	ds	2
   668  000080                     _ByteSize:
   669                           	opt stack 0
   670  000080                     	ds	1
   671  000081                     _JTAG_State:
   672                           	opt stack 0
   673  000081                     	ds	1
   674  000082                     _Read:
   675                           	opt stack 0
   676  000082                     	ds	1
   677  000083                     _RxPtr:
   678                           	opt stack 0
   679  000083                     	ds	1
   680  000084                     _RxSize:
   681                           	opt stack 0
   682  000084                     	ds	1
   683  000085                     _Rx_State:
   684                           	opt stack 0
   685  000085                     	ds	1
   686  000086                     _USBDeviceState:
   687                           	opt stack 0
   688  000086                     	ds	1
   689  000087                     _ValidPPB:
   690                           	opt stack 0
   691  000087                     	ds	1
   692  000088                     _nCS:
   693                           	opt stack 0
   694  000088                     	ds	1
   695                           tblptru	equ	0xFF8
   696                           postinc0	equ	0xFEE
   697                           wreg	equ	0xFE8
   698                           postdec1	equ	0xFE5
   699                           fsr1h	equ	0xFE2
   700                           fsr1l	equ	0xFE1
   701                           
   702                           	psect	bssBANK1
   703  000100                     __pbssBANK1:
   704                           	opt stack 0
   705  000100                     _TXFIFO:
   706                           	opt stack 0
   707  000100                     	ds	256
   708                           tblptru	equ	0xFF8
   709                           postinc0	equ	0xFEE
   710                           wreg	equ	0xFE8
   711                           postdec1	equ	0xFE5
   712                           fsr1h	equ	0xFE2
   713                           fsr1l	equ	0xFE1
   714                           
   715                           	psect	cstackBANK0
   716  000089                     __pcstackBANK0:
   717                           	opt stack 0
   718  000089                     EEPROM_Read@data:
   719                           	opt stack 0
   720  000089                     USBTransferOnePacket@ep:
   721                           	opt stack 0
   722  000089                     memset@p:
   723                           	opt stack 0
   724                           
   725                           ; 2 bytes @ 0x0
   726  000089                     	ds	1
   727  00008A                     EEPROM_Read@addr:
   728                           	opt stack 0
   729  00008A                     USBTransferOnePacket@handle:
   730                           	opt stack 0
   731                           
   732                           ; 2 bytes @ 0x1
   733  00008A                     	ds	1
   734  00008B                     ??_EEPROM_Checksum:
   735  00008B                     USBDeviceInit@i:
   736                           	opt stack 0
   737                           
   738                           ; 1 bytes @ 0x2
   739  00008B                     	ds	1
   740  00008C                     ??_Main_Task_Blaster:
   741                           
   742                           ; 1 bytes @ 0x3
   743  00008C                     	ds	2
   744  00008E                     _Main_Task_Blaster$1216:
   745                           	opt stack 0
   746                           
   747                           ; 2 bytes @ 0x5
   748  00008E                     	ds	2
   749  000090                     EEPROM_Checksum@eeprom_data:
   750                           	opt stack 0
   751  000090                     _Main_Task_Blaster$1250:
   752                           	opt stack 0
   753                           
   754                           ; 2 bytes @ 0x7
   755  000090                     	ds	2
   756  000092                     EEPROM_Checksum@i:
   757                           	opt stack 0
   758  000092                     _Main_Task_Blaster$1297:
   759                           	opt stack 0
   760                           
   761                           ; 2 bytes @ 0x9
   762  000092                     	ds	2
   763  000094                     _Main_Task_Blaster$1301:
   764                           	opt stack 0
   765                           
   766                           ; 2 bytes @ 0xB
   767  000094                     	ds	2
   768  000096                     Main_Task_Blaster@tx:
   769                           	opt stack 0
   770                           
   771                           ; 1 bytes @ 0xD
   772  000096                     	ds	1
   773  000097                     Main_Task_Blaster@txsize:
   774                           	opt stack 0
   775                           
   776                           ; 1 bytes @ 0xE
   777  000097                     	ds	1
   778  000098                     Main_Task_Blaster@txfifo_size:
   779                           	opt stack 0
   780                           
   781                           ; 1 bytes @ 0xF
   782  000098                     	ds	1
   783  000099                     Main_Task_Blaster@opcode:
   784                           	opt stack 0
   785                           
   786                           ; 1 bytes @ 0x10
   787  000099                     	ds	1
   788                           tblptru	equ	0xFF8
   789                           postinc0	equ	0xFEE
   790                           wreg	equ	0xFE8
   791                           postdec1	equ	0xFE5
   792                           fsr1h	equ	0xFE2
   793                           fsr1l	equ	0xFE1
   794                           
   795                           	psect	cstackCOMRAM
   796  000001                     __pcstackCOMRAM:
   797                           	opt stack 0
   798  000001                     ??_USBStdGetDscHandler:
   799  000001                     ??_USBStdGetStatusHandler:
   800  000001                     ??i2_EEPROM_Read:
   801  000001                     USBConfigureEndpoint@direction:
   802                           	opt stack 0
   803  000001                     USBCtrlTrfTxService@byteToSend:
   804                           	opt stack 0
   805  000001                     USBCtrlTrfRxService@i:
   806                           	opt stack 0
   807  000001                     i2memset@p1:
   808                           	opt stack 0
   809                           
   810                           ; 2 bytes @ 0x0
   811  000001                     	ds	1
   812  000002                     ??_USBConfigureEndpoint:
   813  000002                     USBCtrlTrfRxService@byteToRead:
   814                           	opt stack 0
   815  000002                     USBCtrlTrfInHandler@lastDTS:
   816                           	opt stack 0
   817  000002                     USBStdGetStatusHandler@p:
   818                           	opt stack 0
   819                           
   820                           ; 2 bytes @ 0x1
   821  000002                     	ds	1
   822  000003                     i2memset@c:
   823                           	opt stack 0
   824                           
   825                           ; 2 bytes @ 0x2
   826  000003                     	ds	2
   827  000005                     i2memset@n:
   828                           	opt stack 0
   829                           
   830                           ; 2 bytes @ 0x4
   831  000005                     	ds	1
   832  000006                     USBConfigureEndpoint@EPNum:
   833                           	opt stack 0
   834                           
   835                           ; 1 bytes @ 0x5
   836  000006                     	ds	1
   837  000007                     i2EEPROM_Read@data:
   838                           	opt stack 0
   839  000007                     USBConfigureEndpoint@handle:
   840                           	opt stack 0
   841  000007                     i2memset@p:
   842                           	opt stack 0
   843                           
   844                           ; 2 bytes @ 0x6
   845  000007                     	ds	1
   846  000008                     i2EEPROM_Read@addr:
   847                           	opt stack 0
   848                           
   849                           ; 1 bytes @ 0x7
   850  000008                     	ds	1
   851  000009                     USB_FT245_Emulation@addr:
   852                           	opt stack 0
   853  000009                     USBEnableEndpoint@options:
   854                           	opt stack 0
   855  000009                     i2USBDeviceInit@i:
   856                           	opt stack 0
   857                           
   858                           ; 1 bytes @ 0x8
   859  000009                     	ds	1
   860  00000A                     USBEnableEndpoint@p:
   861                           	opt stack 0
   862                           
   863                           ; 2 bytes @ 0x9
   864  00000A                     	ds	2
   865  00000C                     USBEnableEndpoint@ep:
   866                           	opt stack 0
   867                           
   868                           ; 1 bytes @ 0xB
   869  00000C                     	ds	1
   870  00000D                     USER_USB_CALLBACK_EVENT_HANDLER@event:
   871                           	opt stack 0
   872                           
   873                           ; 2 bytes @ 0xC
   874  00000D                     	ds	2
   875  00000F                     USER_USB_CALLBACK_EVENT_HANDLER@pdata:
   876                           	opt stack 0
   877                           
   878                           ; 2 bytes @ 0xE
   879  00000F                     	ds	2
   880  000011                     USER_USB_CALLBACK_EVENT_HANDLER@size:
   881                           	opt stack 0
   882                           
   883                           ; 2 bytes @ 0x10
   884  000011                     	ds	2
   885  000013                     ??_USER_USB_CALLBACK_EVENT_HANDLER:
   886                           
   887                           ; 1 bytes @ 0x12
   888  000013                     	ds	2
   889  000015                     ??_USBStdFeatureReqHandler:
   890  000015                     USBStdSetCfgHandler@i:
   891                           	opt stack 0
   892                           
   893                           ; 1 bytes @ 0x14
   894  000015                     	ds	1
   895  000016                     USBStdFeatureReqHandler@pUEP:
   896                           	opt stack 0
   897                           
   898                           ; 2 bytes @ 0x15
   899  000016                     	ds	2
   900  000018                     USBStdFeatureReqHandler@current_ep_data:
   901                           	opt stack 0
   902                           
   903                           ; 1 bytes @ 0x17
   904  000018                     	ds	1
   905  000019                     USBStdFeatureReqHandler@p:
   906                           	opt stack 0
   907                           
   908                           ; 2 bytes @ 0x18
   909  000019                     	ds	2
   910  00001B                     ??_USBCtrlEPService:
   911  00001B                     
   912                           ; 1 bytes @ 0x1A
   913  00001B                     	ds	2
   914  00001D                     USBCtrlEPService@setup_cnt:
   915                           	opt stack 0
   916                           
   917                           ; 1 bytes @ 0x1C
   918  00001D                     	ds	1
   919  00001E                     USBDeviceTasks@i:
   920                           	opt stack 0
   921                           
   922                           ; 1 bytes @ 0x1D
   923  00001E                     	ds	1
   924  00001F                     ??_SYS_InterruptHigh:
   925                           
   926                           ; 1 bytes @ 0x1E
   927  00001F                     	ds	14
   928  00002D                     ??_EEPROM_Read:
   929  00002D                     ?_USBTransferOnePacket:
   930                           	opt stack 0
   931  00002D                     ?_TXFIFO_Fill:
   932                           	opt stack 0
   933  00002D                     ?_TXFIFO_Room:
   934                           	opt stack 0
   935  00002D                     bitrev@byte:
   936                           	opt stack 0
   937  00002D                     TXFIFO_Write@data:
   938                           	opt stack 0
   939  00002D                     TIMER0_Reach_10ms@flag:
   940                           	opt stack 0
   941  00002D                     USBTransferOnePacket@dir:
   942                           	opt stack 0
   943  00002D                     TXFIFO_Read@ptr:
   944                           	opt stack 0
   945  00002D                     memset@p1:
   946                           	opt stack 0
   947                           
   948                           ; 2 bytes @ 0x2C
   949  00002D                     	ds	1
   950  00002E                     JTAG_SPI_Put@byte:
   951                           	opt stack 0
   952  00002E                     USBTransferOnePacket@data:
   953                           	opt stack 0
   954                           
   955                           ; 2 bytes @ 0x2D
   956  00002E                     	ds	1
   957  00002F                     ??_TXFIFO_Room:
   958  00002F                     TXFIFO_Read@size:
   959                           	opt stack 0
   960  00002F                     memset@c:
   961                           	opt stack 0
   962                           
   963                           ; 2 bytes @ 0x2E
   964  00002F                     	ds	1
   965  000030                     ??_TXFIFO_Read:
   966  000030                     USBTransferOnePacket@len:
   967                           	opt stack 0
   968                           
   969                           ; 1 bytes @ 0x2F
   970  000030                     	ds	1
   971  000031                     memset@n:
   972                           	opt stack 0
   973                           
   974                           ; 2 bytes @ 0x30
   975  000031                     	ds	2
   976  000033                     tblptru	equ	0xFF8
   977                           postinc0	equ	0xFEE
   978                           wreg	equ	0xFE8
   979                           postdec1	equ	0xFE5
   980                           fsr1h	equ	0xFE2
   981                           fsr1l	equ	0xFE1
   982                           
   983                           ; 1 bytes @ 0x32
   984 ;;
   985 ;;Main: autosize = 0, tempsize = 0, incstack = 0, save=0
   986 ;;
   987 ;; *************** function _main *****************
   988 ;; Defined at:
   989 ;;		line 101 in file "../src/main.c"
   990 ;; Parameters:    Size  Location     Type
   991 ;;		None
   992 ;; Auto vars:     Size  Location     Type
   993 ;;		None
   994 ;; Return value:  Size  Location     Type
   995 ;;                  1    wreg      void 
   996 ;; Registers used:
   997 ;;		wreg, fsr1l, fsr1h, fsr2l, fsr2h, status,2, status,0, tblptrl, tblptrh, tblptru, prodl, prodh, cstack
   998 ;; Tracked objects:
   999 ;;		On entry : 0/0
  1000 ;;		On exit  : 0/0
  1001 ;;		Unchanged: 0/0
  1002 ;; Data sizes:     COMRAM   BANK0   BANK1
  1003 ;;      Params:         0       0       0
  1004 ;;      Locals:         0       0       0
  1005 ;;      Temps:          0       0       0
  1006 ;;      Totals:         0       0       0
  1007 ;;Total ram usage:        0 bytes
  1008 ;; Hardware stack levels required when called:   13
  1009 ;; This function calls:
  1010 ;;		_Blaster_Init
  1011 ;;		_Main_Task_Blaster
  1012 ;;		_Timer_Init
  1013 ;;		_USBDeviceAttach
  1014 ;;		_USBDeviceInit
  1015 ;; This function is called by:
  1016 ;;		Startup code after reset
  1017 ;; This function uses a non-reentrant model
  1018 ;;
  1019                           
  1020                           	psect	text0
  1021  0021FA                     __ptext0:
  1022                           	opt stack 0
  1023  0021FA                     _main:
  1024                           	opt stack 18
  1025                           
  1026                           ;main.c: 106: Timer_Init();
  1027                           
  1028                           ;incstack = 0
  1029  0021FA  EC0F  F011         	call	_Timer_Init	;wreg free
  1030                           
  1031                           ;main.c: 107: Blaster_Init();
  1032  0021FE  EC63  F011         	call	_Blaster_Init	;wreg free
  1033                           
  1034                           ;main.c: 112: USBDeviceInit();
  1035  002202  EC4E  F007         	call	_USBDeviceInit	;wreg free
  1036                           
  1037                           ;main.c: 113: USBDeviceAttach();
  1038  002206  EC77  F010         	call	_USBDeviceAttach	;wreg free
  1039  00220A                     l4184:
  1040                           
  1041                           ;main.c: 119: {
  1042                           ;main.c: 139: if( USBDeviceState < CONFIGURED_STATE )
  1043  00220A  0E20               	movlw	32
  1044  00220C  0100               	movlb	0	; () banked
  1045  00220E  6186               	cpfslt	_USBDeviceState& (0+255),b	;volatile
  1046  002210  D001               	goto	l24
  1047  002212  D7FB               	goto	l4184
  1048  002214                     l24:
  1049                           
  1050                           ; BSR set to: 0
  1051                           ;main.c: 143: }
  1052                           ;main.c: 149: if( UCONbits.SUSPND== 1 )
  1053  002214  B264               	btfsc	3940,1,c	;volatile
  1054  002216  D7F9               	goto	l4184
  1055                           
  1056                           ; BSR set to: 0
  1057                           ;main.c: 153: }
  1058                           ;main.c: 156: Main_Task_Blaster();
  1059                           
  1060                           ; BSR set to: 0
  1061                           
  1062                           ; BSR set to: 0
  1063                           ;main.c: 150: {
  1064                           ;main.c: 152: continue;
  1065  002218  EC43  F000         	call	_Main_Task_Blaster	;wreg free
  1066  00221C  D7F6               	goto	l4184
  1067  00221E                     __end_of_main:
  1068                           	opt stack 0
  1069                           tblptru	equ	0xFF8
  1070                           postinc0	equ	0xFEE
  1071                           wreg	equ	0xFE8
  1072                           postdec1	equ	0xFE5
  1073                           fsr1h	equ	0xFE2
  1074                           fsr1l	equ	0xFE1
  1075                           
  1076 ;; *************** function _USBDeviceInit *****************
  1077 ;; Defined at:
  1078 ;;		line 298 in file "../../mla/framework/usb/src/usb_device.c"
  1079 ;; Parameters:    Size  Location     Type
  1080 ;;		None
  1081 ;; Auto vars:     Size  Location     Type
  1082 ;;  i               1    2[BANK0 ] unsigned char 
  1083 ;; Return value:  Size  Location     Type
  1084 ;;                  1    wreg      void 
  1085 ;; Registers used:
  1086 ;;		wreg, fsr2l, fsr2h, status,2, status,0, prodl, prodh, cstack
  1087 ;; Tracked objects:
  1088 ;;		On entry : 0/0
  1089 ;;		On exit  : 0/0
  1090 ;;		Unchanged: 0/0
  1091 ;; Data sizes:     COMRAM   BANK0   BANK1
  1092 ;;      Params:         0       0       0
  1093 ;;      Locals:         0       1       0
  1094 ;;      Temps:          0       0       0
  1095 ;;      Totals:         0       1       0
  1096 ;;Total ram usage:        1 bytes
  1097 ;; Hardware stack levels used:    1
  1098 ;; Hardware stack levels required when called:   11
  1099 ;; This function calls:
  1100 ;;		_memset
  1101 ;; This function is called by:
  1102 ;;		_main
  1103 ;; This function uses a non-reentrant model
  1104 ;;
  1105                           
  1106                           	psect	text1
  1107  000E9C                     __ptext1:
  1108                           	opt stack 0
  1109  000E9C                     _USBDeviceInit:
  1110                           	opt stack 19
  1111                           
  1112                           ;usb_device.c: 300: uint8_t i;
  1113                           ;usb_device.c: 302: {PIE2bits.USBIE = 0;};
  1114                           
  1115                           ;incstack = 0
  1116  000E9C  94A0               	bcf	4000,2,c	;volatile
  1117                           
  1118                           ;usb_device.c: 305: {UEIR = 0;};
  1119  000E9E  0E00               	movlw	0
  1120  000EA0  010F               	movlb	15	; () banked
  1121  000EA2  6F5F               	movwf	95,b	;volatile
  1122                           
  1123                           ;usb_device.c: 308: {UIR = 0;};
  1124  000EA4  0E00               	movlw	0
  1125  000EA6  6E62               	movwf	3938,c	;volatile
  1126                           
  1127                           ;usb_device.c: 311: UEP0 = 0;
  1128  000EA8  0E00               	movlw	0
  1129  000EAA  010F               	movlb	15	; () banked
  1130  000EAC  6F53               	movwf	83,b	;volatile
  1131                           
  1132                           ; BSR set to: 15
  1133                           ;usb_device.c: 313: memset((void*)&UEP1,0x00,(2));;
  1134  000EAE  0E54               	movlw	84
  1135  000EB0  6E2D               	movwf	memset@p1,c
  1136  000EB2  0E0F               	movlw	15
  1137  000EB4  6E2E               	movwf	memset@p1+1,c
  1138  000EB6  0E00               	movlw	0
  1139  000EB8  6E30               	movwf	memset@c+1,c
  1140  000EBA  0E00               	movlw	0
  1141  000EBC  6E2F               	movwf	memset@c,c
  1142  000EBE  0E00               	movlw	0
  1143  000EC0  6E32               	movwf	memset@n+1,c
  1144  000EC2  0E02               	movlw	2
  1145  000EC4  6E31               	movwf	memset@n,c
  1146  000EC6  EC92  F010         	call	_memset	;wreg free
  1147                           
  1148                           ;usb_device.c: 315: { UCFG = 0x10 | 0x00 | 0x04 | 0x02; UEIE = 0x9F; UIE = 0x39 | 0x40 |
      +                           0x02; };
  1149  000ECA  0E16               	movlw	22
  1150  000ECC  6E61               	movwf	3937,c	;volatile
  1151  000ECE  0E9F               	movlw	159
  1152  000ED0  010F               	movlb	15	; () banked
  1153  000ED2  6F5B               	movwf	91,b	;volatile
  1154                           
  1155                           ; BSR set to: 15
  1156  000ED4  0E7B               	movlw	123
  1157  000ED6  6E60               	movwf	3936,c	;volatile
  1158                           
  1159                           ; BSR set to: 15
  1160                           ;usb_device.c: 318: ;
  1161                           ;usb_device.c: 321: ;
  1162                           ;usb_device.c: 324: for(i=0;i<(sizeof(BDT)/sizeof(BDT_ENTRY));i++)
  1163  000ED8  0E00               	movlw	0
  1164  000EDA  0100               	movlb	0	; () banked
  1165  000EDC  6F8B               	movwf	USBDeviceInit@i& (0+255),b
  1166  000EDE                     l3846:
  1167                           
  1168                           ; BSR set to: 0
  1169  000EDE  0E0B               	movlw	11
  1170  000EE0  0100               	movlb	0	; () banked
  1171  000EE2  658B               	cpfsgt	USBDeviceInit@i& (0+255),b
  1172  000EE4  D001               	goto	l3850
  1173  000EE6  D010               	goto	l467
  1174  000EE8                     l3850:
  1175                           
  1176                           ; BSR set to: 0
  1177                           ;usb_device.c: 325: {
  1178                           ;usb_device.c: 326: BDT[i].Val = 0x00;
  1179  000EE8  0100               	movlb	0	; () banked
  1180  000EEA  518B               	movf	USBDeviceInit@i& (0+255),w,b
  1181  000EEC  0D04               	mullw	4
  1182  000EEE  0E00               	movlw	0
  1183  000EF0  24F3               	addwf	prodl,w,c
  1184  000EF2  6ED9               	movwf	fsr2l,c
  1185  000EF4  0E02               	movlw	2
  1186  000EF6  20F4               	addwfc	prodh,w,c
  1187  000EF8  6EDA               	movwf	fsr2h,c
  1188  000EFA  6ADE               	clrf	postinc2,c
  1189  000EFC  6ADE               	clrf	postinc2,c
  1190  000EFE  6ADE               	clrf	postinc2,c
  1191  000F00  6ADD               	clrf	postdec2,c
  1192                           
  1193                           ; BSR set to: 0
  1194  000F02  0100               	movlb	0	; () banked
  1195  000F04  2B8B               	incf	USBDeviceInit@i& (0+255),f,b
  1196  000F06  D7EB               	goto	l3846
  1197  000F08                     l467:
  1198                           
  1199                           ; BSR set to: 0
  1200                           ;usb_device.c: 327: }
  1201                           ;usb_device.c: 330: UCONbits.PPBRST = 1;
  1202  000F08  8C64               	bsf	3940,6,c	;volatile
  1203                           
  1204                           ; BSR set to: 0
  1205                           ;usb_device.c: 333: UADDR = 0x00;
  1206  000F0A  0E00               	movlw	0
  1207  000F0C  010F               	movlb	15	; () banked
  1208  000F0E  6F5C               	movwf	92,b	;volatile
  1209                           
  1210                           ; BSR set to: 15
  1211                           ;usb_device.c: 336: UCONbits.PKTDIS = 0;
  1212  000F10  9864               	bcf	3940,4,c	;volatile
  1213                           
  1214                           ; BSR set to: 15
  1215                           ;usb_device.c: 339: UCONbits.PPBRST = 0;
  1216  000F12  9C64               	bcf	3940,6,c	;volatile
  1217                           
  1218                           ;usb_device.c: 342: while(UIRbits.TRNIF == 1)
  1219  000F14  D00B               	goto	l3870
  1220  000F16                     l3862:
  1221                           
  1222                           ;usb_device.c: 343: {
  1223                           ;usb_device.c: 344: (UIR &= 0xF7);
  1224  000F16  9662               	bcf	3938,3,c	;volatile
  1225                           
  1226                           ;usb_device.c: 346: inPipes[0].info.Val = 0;
  1227  000F18  0E00               	movlw	0
  1228  000F1A  6E36               	movwf	_inPipes+3,c	;volatile
  1229                           
  1230                           ;usb_device.c: 347: outPipes[0].info.Val = 0;
  1231  000F1C  0E00               	movlw	0
  1232  000F1E  0100               	movlb	0	; () banked
  1233  000F20  6F63               	movwf	(_outPipes+3)& (0+255),b	;volatile
  1234                           
  1235                           ; BSR set to: 0
  1236                           ;usb_device.c: 348: outPipes[0].wCount.Val = 0;
  1237  000F22  0E00               	movlw	0
  1238  000F24  0100               	movlb	0	; () banked
  1239  000F26  6F65               	movwf	(_outPipes+5)& (0+255),b	;volatile
  1240  000F28  0E00               	movlw	0
  1241  000F2A  6F64               	movwf	(_outPipes+4)& (0+255),b	;volatile
  1242  000F2C                     l3870:
  1243  000F2C  B662               	btfsc	3938,3,c	;volatile
  1244  000F2E  D7F3               	goto	l3862
  1245                           
  1246                           ;usb_device.c: 349: }
  1247                           ;usb_device.c: 353: USBStatusStageEnabledFlag1 = 1;
  1248  000F30  0E01               	movlw	1
  1249  000F32  6E49               	movwf	_USBStatusStageEnabledFlag1,c	;volatile
  1250                           
  1251                           ;usb_device.c: 354: USBStatusStageEnabledFlag2 = 1;
  1252  000F34  0E01               	movlw	1
  1253  000F36  6E4A               	movwf	_USBStatusStageEnabledFlag2,c	;volatile
  1254                           
  1255                           ;usb_device.c: 356: USBDeferINDataStagePackets = 0;
  1256  000F38  0E00               	movlw	0
  1257  000F3A  6E46               	movwf	_USBDeferINDataStagePackets,c	;volatile
  1258                           
  1259                           ;usb_device.c: 357: USBDeferOUTDataStagePackets = 0;
  1260  000F3C  0E00               	movlw	0
  1261  000F3E  6E47               	movwf	_USBDeferOUTDataStagePackets,c	;volatile
  1262                           
  1263                           ;usb_device.c: 358: USBBusIsSuspended = 0;
  1264  000F40  0E00               	movlw	0
  1265  000F42  6E45               	movwf	_USBBusIsSuspended,c	;volatile
  1266                           
  1267                           ;usb_device.c: 362: for(i = 0; i < (uint8_t)(2+1u); i++)
  1268  000F44  0E00               	movlw	0
  1269  000F46  0100               	movlb	0	; () banked
  1270  000F48  6F8B               	movwf	USBDeviceInit@i& (0+255),b
  1271  000F4A                     l3874:
  1272                           
  1273                           ; BSR set to: 0
  1274  000F4A  0E02               	movlw	2
  1275  000F4C  0100               	movlb	0	; () banked
  1276  000F4E  658B               	cpfsgt	USBDeviceInit@i& (0+255),b
  1277  000F50  D001               	goto	l3878
  1278  000F52  D033               	goto	l3884
  1279  000F54                     l3878:
  1280                           
  1281                           ; BSR set to: 0
  1282                           ;usb_device.c: 363: {
  1283                           ;usb_device.c: 364: pBDTEntryIn[i] = 0u;
  1284  000F54  0100               	movlb	0	; () banked
  1285  000F56  518B               	movf	USBDeviceInit@i& (0+255),w,b
  1286  000F58  0D02               	mullw	2
  1287  000F5A  0E68               	movlw	low _pBDTEntryIn
  1288  000F5C  24F3               	addwf	prodl,w,c
  1289  000F5E  6ED9               	movwf	fsr2l,c
  1290  000F60  0E00               	movlw	high _pBDTEntryIn
  1291  000F62  20F4               	addwfc	prodh,w,c
  1292  000F64  6EDA               	movwf	fsr2h,c
  1293  000F66  0E00               	movlw	0
  1294  000F68  6EDE               	movwf	postinc2,c
  1295  000F6A  0E00               	movlw	0
  1296  000F6C  6EDD               	movwf	postdec2,c
  1297                           
  1298                           ;usb_device.c: 365: pBDTEntryOut[i] = 0u;
  1299  000F6E  0100               	movlb	0	; () banked
  1300  000F70  518B               	movf	USBDeviceInit@i& (0+255),w,b
  1301  000F72  0D02               	mullw	2
  1302  000F74  0E6E               	movlw	low _pBDTEntryOut
  1303  000F76  24F3               	addwf	prodl,w,c
  1304  000F78  6ED9               	movwf	fsr2l,c
  1305  000F7A  0E00               	movlw	high _pBDTEntryOut
  1306  000F7C  20F4               	addwfc	prodh,w,c
  1307  000F7E  6EDA               	movwf	fsr2h,c
  1308  000F80  0E00               	movlw	0
  1309  000F82  6EDE               	movwf	postinc2,c
  1310  000F84  0E00               	movlw	0
  1311  000F86  6EDD               	movwf	postdec2,c
  1312                           
  1313                           ;usb_device.c: 366: ep_data_in[i].Val = 0u;
  1314  000F88  0100               	movlb	0	; () banked
  1315  000F8A  518B               	movf	USBDeviceInit@i& (0+255),w,b
  1316  000F8C  0D01               	mullw	1
  1317  000F8E  0E74               	movlw	low _ep_data_in
  1318  000F90  24F3               	addwf	prodl,w,c
  1319  000F92  6ED9               	movwf	fsr2l,c
  1320  000F94  0E00               	movlw	high _ep_data_in
  1321  000F96  20F4               	addwfc	prodh,w,c
  1322  000F98  6EDA               	movwf	fsr2h,c
  1323  000F9A  0E00               	movlw	0
  1324  000F9C  6EDF               	movwf	indf2,c
  1325                           
  1326                           ;usb_device.c: 367: ep_data_out[i].Val = 0u;
  1327  000F9E  0100               	movlb	0	; () banked
  1328  000FA0  518B               	movf	USBDeviceInit@i& (0+255),w,b
  1329  000FA2  0D01               	mullw	1
  1330  000FA4  0E77               	movlw	low _ep_data_out
  1331  000FA6  24F3               	addwf	prodl,w,c
  1332  000FA8  6ED9               	movwf	fsr2l,c
  1333  000FAA  0E00               	movlw	high _ep_data_out
  1334  000FAC  20F4               	addwfc	prodh,w,c
  1335  000FAE  6EDA               	movwf	fsr2h,c
  1336  000FB0  0E00               	movlw	0
  1337  000FB2  6EDF               	movwf	indf2,c
  1338                           
  1339                           ; BSR set to: 0
  1340  000FB4  0100               	movlb	0	; () banked
  1341  000FB6  2B8B               	incf	USBDeviceInit@i& (0+255),f,b
  1342  000FB8  D7C8               	goto	l3874
  1343  000FBA                     l3884:
  1344                           
  1345                           ; BSR set to: 0
  1346                           ;usb_device.c: 368: }
  1347                           ;usb_device.c: 371: pBDTEntryIn[0] = (volatile BDT_ENTRY*)&BDT[2];
  1348  000FBA  0E08               	movlw	8
  1349  000FBC  0100               	movlb	0	; () banked
  1350  000FBE  6F68               	movwf	_pBDTEntryIn& (0+255),b
  1351  000FC0  0E02               	movlw	2
  1352  000FC2  0100               	movlb	0	; () banked
  1353  000FC4  6F69               	movwf	(_pBDTEntryIn+1)& (0+255),b
  1354                           
  1355                           ; BSR set to: 0
  1356                           ;usb_device.c: 373: UEP0 = 0x06|0x10;
  1357  000FC6  0E16               	movlw	22
  1358  000FC8  010F               	movlb	15	; () banked
  1359  000FCA  6F53               	movwf	83,b	;volatile
  1360                           
  1361                           ; BSR set to: 15
  1362                           ;usb_device.c: 375: BDT[0].ADR = ((uint16_t)(&SetupPkt));
  1363  000FCC  0E02               	movlw	2
  1364  000FCE  0102               	movlb	2	; () banked
  1365  000FD0  6F03               	movwf	3,b	;volatile
  1366  000FD2  0E30               	movlw	48
  1367  000FD4  6F02               	movwf	2,b	;volatile
  1368                           
  1369                           ; BSR set to: 2
  1370                           ;usb_device.c: 376: BDT[0].CNT = 8;
  1371  000FD6  0E08               	movlw	8
  1372  000FD8  0102               	movlb	2	; () banked
  1373  000FDA  6F01               	movwf	1,b	;volatile
  1374                           
  1375                           ; BSR set to: 2
  1376                           ;usb_device.c: 377: BDT[0].STAT.Val = 0x00|0x04;
  1377  000FDC  0E04               	movlw	4
  1378  000FDE  0102               	movlb	2	; () banked
  1379  000FE0  6F00               	movwf	0,b	;volatile
  1380                           
  1381                           ; BSR set to: 2
  1382                           ;usb_device.c: 378: BDT[0].STAT.Val |= 0x80;
  1383  000FE2  0102               	movlb	2	; () banked
  1384  000FE4  8F00               	bsf	0,7,b	;volatile
  1385                           
  1386                           ; BSR set to: 2
  1387                           ;usb_device.c: 381: USBActiveConfiguration = 0;
  1388  000FE6  0E00               	movlw	0
  1389  000FE8  6E4F               	movwf	_USBActiveConfiguration,c	;volatile
  1390                           
  1391                           ; BSR set to: 2
  1392                           ;usb_device.c: 384: USBDeviceState = DETACHED_STATE;
  1393  000FEA  0E00               	movlw	0
  1394  000FEC  0100               	movlb	0	; () banked
  1395  000FEE  6F86               	movwf	_USBDeviceState& (0+255),b	;volatile
  1396                           
  1397                           ; BSR set to: 0
  1398  000FF0  0012               	return		;funcret
  1399  000FF2                     __end_of_USBDeviceInit:
  1400                           	opt stack 0
  1401                           tblptru	equ	0xFF8
  1402                           prodh	equ	0xFF4
  1403                           prodl	equ	0xFF3
  1404                           postinc0	equ	0xFEE
  1405                           wreg	equ	0xFE8
  1406                           postdec1	equ	0xFE5
  1407                           fsr1h	equ	0xFE2
  1408                           fsr1l	equ	0xFE1
  1409                           indf2	equ	0xFDF
  1410                           postinc2	equ	0xFDE
  1411                           postdec2	equ	0xFDD
  1412                           fsr2h	equ	0xFDA
  1413                           fsr2l	equ	0xFD9
  1414                           
  1415 ;; *************** function _memset *****************
  1416 ;; Defined at:
  1417 ;;		line 8 in file "/Applications/microchip/xc8/v1.38/sources/common/memset.c"
  1418 ;; Parameters:    Size  Location     Type
  1419 ;;  p1              2   44[COMRAM] PTR void 
  1420 ;;		 -> USBAlternateInterface(1), BDT(48), UEP1(1), 
  1421 ;;  c               2   46[COMRAM] int 
  1422 ;;  n               2   48[COMRAM] unsigned int 
  1423 ;; Auto vars:     Size  Location     Type
  1424 ;;  p               2    0[BANK0 ] PTR unsigned char 
  1425 ;;		 -> USBAlternateInterface(1), BDT(48), UEP1(1), 
  1426 ;; Return value:  Size  Location     Type
  1427 ;;                  2   44[COMRAM] PTR void 
  1428 ;; Registers used:
  1429 ;;		wreg, fsr2l, fsr2h, status,2, status,0
  1430 ;; Tracked objects:
  1431 ;;		On entry : 0/0
  1432 ;;		On exit  : 0/0
  1433 ;;		Unchanged: 0/0
  1434 ;; Data sizes:     COMRAM   BANK0   BANK1
  1435 ;;      Params:         6       0       0
  1436 ;;      Locals:         0       2       0
  1437 ;;      Temps:          0       0       0
  1438 ;;      Totals:         6       2       0
  1439 ;;Total ram usage:        8 bytes
  1440 ;; Hardware stack levels used:    1
  1441 ;; Hardware stack levels required when called:   10
  1442 ;; This function calls:
  1443 ;;		Nothing
  1444 ;; This function is called by:
  1445 ;;		_USBDeviceInit
  1446 ;; This function uses a non-reentrant model
  1447 ;;
  1448                           
  1449                           	psect	text2
  1450  002124                     __ptext2:
  1451                           	opt stack 0
  1452  002124                     _memset:
  1453                           	opt stack 19
  1454                           
  1455                           ; BSR set to: 0
  1456                           ;incstack = 0
  1457  002124  C02D  F089         	movff	memset@p1,memset@p
  1458  002128  C02E  F08A         	movff	memset@p1+1,memset@p+1
  1459  00212C  D009               	goto	l3684
  1460  00212E                     l3680:
  1461  00212E  C089  FFD9         	movff	memset@p,fsr2l
  1462  002132  C08A  FFDA         	movff	memset@p+1,fsr2h
  1463  002136  C02F  FFDF         	movff	memset@c,indf2
  1464  00213A  0100               	movlb	0	; () banked
  1465  00213C  4B89               	infsnz	memset@p& (0+255),f,b
  1466  00213E  2B8A               	incf	(memset@p+1)& (0+255),f,b
  1467  002140                     l3684:
  1468  002140  0631               	decf	memset@n,f,c
  1469  002142  A0D8               	btfss	status,0,c
  1470  002144  0632               	decf	memset@n+1,f,c
  1471  002146  2831               	incf	memset@n,w,c
  1472  002148  E1F2               	bnz	l3680
  1473  00214A  2832               	incf	memset@n+1,w,c
  1474  00214C  B4D8               	btfsc	status,2,c
  1475  00214E  0012               	return	
  1476  002150  D7EE               	goto	l3680
  1477  002152                     __end_of_memset:
  1478                           	opt stack 0
  1479                           tblptru	equ	0xFF8
  1480                           prodh	equ	0xFF4
  1481                           prodl	equ	0xFF3
  1482                           postinc0	equ	0xFEE
  1483                           wreg	equ	0xFE8
  1484                           postdec1	equ	0xFE5
  1485                           fsr1h	equ	0xFE2
  1486                           fsr1l	equ	0xFE1
  1487                           indf2	equ	0xFDF
  1488                           postinc2	equ	0xFDE
  1489                           postdec2	equ	0xFDD
  1490                           fsr2h	equ	0xFDA
  1491                           fsr2l	equ	0xFD9
  1492                           status	equ	0xFD8
  1493                           
  1494 ;; *************** function _USBDeviceAttach *****************
  1495 ;; Defined at:
  1496 ;;		line 1352 in file "../../mla/framework/usb/src/usb_device.c"
  1497 ;; Parameters:    Size  Location     Type
  1498 ;;		None
  1499 ;; Auto vars:     Size  Location     Type
  1500 ;;		None
  1501 ;; Return value:  Size  Location     Type
  1502 ;;                  1    wreg      void 
  1503 ;; Registers used:
  1504 ;;		wreg, status,2
  1505 ;; Tracked objects:
  1506 ;;		On entry : 0/0
  1507 ;;		On exit  : 0/0
  1508 ;;		Unchanged: 0/0
  1509 ;; Data sizes:     COMRAM   BANK0   BANK1
  1510 ;;      Params:         0       0       0
  1511 ;;      Locals:         0       0       0
  1512 ;;      Temps:          0       0       0
  1513 ;;      Totals:         0       0       0
  1514 ;;Total ram usage:        0 bytes
  1515 ;; Hardware stack levels used:    1
  1516 ;; Hardware stack levels required when called:   10
  1517 ;; This function calls:
  1518 ;;		Nothing
  1519 ;; This function is called by:
  1520 ;;		_main
  1521 ;; This function uses a non-reentrant model
  1522 ;;
  1523                           
  1524                           	psect	text3
  1525  0020EE                     __ptext3:
  1526                           	opt stack 0
  1527  0020EE                     _USBDeviceAttach:
  1528                           	opt stack 20
  1529                           
  1530                           ;usb_device.c: 1356: {
  1531                           ;usb_device.c: 1357: if(1 == 1)
  1532                           
  1533                           ;incstack = 0
  1534  0020EE  0100               	movlb	0	; () banked
  1535  0020F0  5186               	movf	_USBDeviceState& (0+255),w,b	;volatile
  1536  0020F2  A4D8               	btfss	status,2,c
  1537  0020F4  0012               	return	
  1538                           
  1539                           ; BSR set to: 0
  1540                           ;usb_device.c: 1358: {
  1541                           ;usb_device.c: 1360: UCON = 0;
  1542  0020F6  0E00               	movlw	0
  1543  0020F8  6E64               	movwf	3940,c	;volatile
  1544                           
  1545                           ;usb_device.c: 1363: UIE = 0;
  1546  0020FA  0E00               	movlw	0
  1547  0020FC  6E60               	movwf	3936,c	;volatile
  1548                           
  1549                           ;usb_device.c: 1367: { UCFG = 0x10 | 0x00 | 0x04 | 0x02; UEIE = 0x9F; UIE = 0x39 | 0x40 
      +                          | 0x02; };
  1550  0020FE  0E16               	movlw	22
  1551  002100  6E61               	movwf	3937,c	;volatile
  1552  002102  0E9F               	movlw	159
  1553  002104  010F               	movlb	15	; () banked
  1554  002106  6F5B               	movwf	91,b	;volatile
  1555  002108  0E7B               	movlw	123
  1556  00210A  6E60               	movwf	3936,c	;volatile
  1557                           
  1558                           ; BSR set to: 15
  1559                           ;usb_device.c: 1369: {RCONbits.IPEN = 1;IPR2bits.USBIP = 1;PIE2bits.USBIE = 1;INTCONbits
      +                          .GIEH = 1;};
  1560  00210C  8ED0               	bsf	4048,7,c	;volatile
  1561                           
  1562                           ; BSR set to: 15
  1563  00210E  84A2               	bsf	4002,2,c	;volatile
  1564                           
  1565                           ; BSR set to: 15
  1566  002110  84A0               	bsf	4000,2,c	;volatile
  1567                           
  1568                           ; BSR set to: 15
  1569  002112  8EF2               	bsf	intcon,7,c	;volatile
  1570                           
  1571                           ;usb_device.c: 1372: while(!UCONbits.USBEN){UCONbits.USBEN = 1;}
  1572  002114  D001               	goto	l528
  1573  002116                     l529:
  1574  002116  8664               	bsf	3940,3,c	;volatile
  1575  002118                     l528:
  1576  002118  A664               	btfss	3940,3,c	;volatile
  1577  00211A  D7FD               	goto	l529
  1578                           
  1579                           ;usb_device.c: 1375: USBDeviceState = ATTACHED_STATE;
  1580  00211C  0E01               	movlw	1
  1581  00211E  0100               	movlb	0	; () banked
  1582  002120  6F86               	movwf	_USBDeviceState& (0+255),b	;volatile
  1583                           
  1584                           ; BSR set to: 0
  1585  002122  0012               	return	
  1586  002124                     __end_of_USBDeviceAttach:
  1587                           	opt stack 0
  1588                           tblptru	equ	0xFF8
  1589                           prodh	equ	0xFF4
  1590                           prodl	equ	0xFF3
  1591                           intcon	equ	0xFF2
  1592                           postinc0	equ	0xFEE
  1593                           wreg	equ	0xFE8
  1594                           postdec1	equ	0xFE5
  1595                           fsr1h	equ	0xFE2
  1596                           fsr1l	equ	0xFE1
  1597                           indf2	equ	0xFDF
  1598                           postinc2	equ	0xFDE
  1599                           postdec2	equ	0xFDD
  1600                           fsr2h	equ	0xFDA
  1601                           fsr2l	equ	0xFD9
  1602                           status	equ	0xFD8
  1603                           
  1604 ;; *************** function _Timer_Init *****************
  1605 ;; Defined at:
  1606 ;;		line 17 in file "../src/timer.c"
  1607 ;; Parameters:    Size  Location     Type
  1608 ;;		None
  1609 ;; Auto vars:     Size  Location     Type
  1610 ;;		None
  1611 ;; Return value:  Size  Location     Type
  1612 ;;                  1    wreg      void 
  1613 ;; Registers used:
  1614 ;;		wreg, status,2
  1615 ;; Tracked objects:
  1616 ;;		On entry : 0/0
  1617 ;;		On exit  : 0/0
  1618 ;;		Unchanged: 0/0
  1619 ;; Data sizes:     COMRAM   BANK0   BANK1
  1620 ;;      Params:         0       0       0
  1621 ;;      Locals:         0       0       0
  1622 ;;      Temps:          0       0       0
  1623 ;;      Totals:         0       0       0
  1624 ;;Total ram usage:        0 bytes
  1625 ;; Hardware stack levels used:    1
  1626 ;; Hardware stack levels required when called:   10
  1627 ;; This function calls:
  1628 ;;		Nothing
  1629 ;; This function is called by:
  1630 ;;		_main
  1631 ;; This function uses a non-reentrant model
  1632 ;;
  1633                           
  1634                           	psect	text4
  1635  00221E                     __ptext4:
  1636                           	opt stack 0
  1637  00221E                     _Timer_Init:
  1638                           	opt stack 20
  1639                           
  1640                           ;timer.c: 22: TRISC = 0x1b;
  1641                           
  1642                           ; BSR set to: 0
  1643                           ;incstack = 0
  1644  00221E  0E1B               	movlw	27
  1645  002220  6E94               	movwf	3988,c	;volatile
  1646                           
  1647                           ;timer.c: 26: CCP1CON = 0x2c;
  1648  002222  0E2C               	movlw	44
  1649  002224  6EBD               	movwf	4029,c	;volatile
  1650                           
  1651                           ;timer.c: 27: PSTRCON = 0x01;
  1652  002226  0E01               	movlw	1
  1653  002228  6EB9               	movwf	4025,c	;volatile
  1654                           
  1655                           ;timer.c: 28: TMR2 = 0x00;
  1656  00222A  0E00               	movlw	0
  1657  00222C  6ECC               	movwf	4044,c	;volatile
  1658                           
  1659                           ;timer.c: 29: CCPR1L = 0x00;
  1660  00222E  0E00               	movlw	0
  1661  002230  6EBE               	movwf	4030,c	;volatile
  1662                           
  1663                           ;timer.c: 30: PR2 = 0x00;
  1664  002232  0E00               	movlw	0
  1665  002234  6ECB               	movwf	4043,c	;volatile
  1666                           
  1667                           ;timer.c: 31: T2CON = 0x04;
  1668  002236  0E04               	movlw	4
  1669  002238  6ECA               	movwf	4042,c	;volatile
  1670  00223A  0012               	return		;funcret
  1671  00223C                     __end_of_Timer_Init:
  1672                           	opt stack 0
  1673                           tblptru	equ	0xFF8
  1674                           prodh	equ	0xFF4
  1675                           prodl	equ	0xFF3
  1676                           intcon	equ	0xFF2
  1677                           postinc0	equ	0xFEE
  1678                           wreg	equ	0xFE8
  1679                           postdec1	equ	0xFE5
  1680                           fsr1h	equ	0xFE2
  1681                           fsr1l	equ	0xFE1
  1682                           indf2	equ	0xFDF
  1683                           postinc2	equ	0xFDE
  1684                           postdec2	equ	0xFDD
  1685                           fsr2h	equ	0xFDA
  1686                           fsr2l	equ	0xFD9
  1687                           status	equ	0xFD8
  1688                           
  1689 ;; *************** function _Main_Task_Blaster *****************
  1690 ;; Defined at:
  1691 ;;		line 374 in file "../src/blaster.c"
  1692 ;; Parameters:    Size  Location     Type
  1693 ;;		None
  1694 ;; Auto vars:     Size  Location     Type
  1695 ;;  tx              1   13[BANK0 ] unsigned char 
  1696 ;;  opcode          1   16[BANK0 ] unsigned char 
  1697 ;;  txsize          1   14[BANK0 ] unsigned char 
  1698 ;;  txfifo_size     1   15[BANK0 ] unsigned char 
  1699 ;; Return value:  Size  Location     Type
  1700 ;;                  1    wreg      void 
  1701 ;; Registers used:
  1702 ;;		wreg, fsr1l, fsr1h, fsr2l, fsr2h, status,2, status,0, tblptrl, tblptrh, tblptru, prodl, prodh, cstack
  1703 ;; Tracked objects:
  1704 ;;		On entry : 0/0
  1705 ;;		On exit  : 0/0
  1706 ;;		Unchanged: 0/0
  1707 ;; Data sizes:     COMRAM   BANK0   BANK1
  1708 ;;      Params:         0       0       0
  1709 ;;      Locals:         0      12       0
  1710 ;;      Temps:          0       2       0
  1711 ;;      Totals:         0      14       0
  1712 ;;Total ram usage:       14 bytes
  1713 ;; Hardware stack levels used:    1
  1714 ;; Hardware stack levels required when called:   12
  1715 ;; This function calls:
  1716 ;;		_JTAG_Mode_PORT
  1717 ;;		_JTAG_Mode_SPI
  1718 ;;		_JTAG_SPI_Get
  1719 ;;		_JTAG_SPI_Put
  1720 ;;		_JTAG_SPI_Wait
  1721 ;;		_TIMER0_Reach_10ms
  1722 ;;		_TIMER0_Start_10ms
  1723 ;;		_TXFIFO_Fill
  1724 ;;		_TXFIFO_Read
  1725 ;;		_TXFIFO_Room
  1726 ;;		_TXFIFO_Write
  1727 ;;		_USBTransferOnePacket
  1728 ;; This function is called by:
  1729 ;;		_main
  1730 ;; This function uses a non-reentrant model
  1731 ;;
  1732                           
  1733                           	psect	text5
  1734  000086                     __ptext5:
  1735                           	opt stack 0
  1736  000086                     _Main_Task_Blaster:
  1737                           	opt stack 18
  1738                           
  1739                           ;blaster.c: 379: switch (Rx_State)
  1740                           
  1741                           ;incstack = 0
  1742  000086  D0B0               	goto	l3966
  1743  000088                     l3916:
  1744                           
  1745                           ;blaster.c: 385: {
  1746                           ;blaster.c: 388: USB_OutHandle0 = USBTransferOnePacket(2,0,(uint8_t*)&USB_OutPacket[0],6
      +                          4);
  1747  000088  0E00               	movlw	0
  1748  00008A  6E2D               	movwf	USBTransferOnePacket@dir,c
  1749  00008C  0E80               	movlw	128
  1750  00008E  6E2E               	movwf	USBTransferOnePacket@data,c
  1751  000090  0E02               	movlw	2
  1752  000092  6E2F               	movwf	USBTransferOnePacket@data+1,c
  1753  000094  0E40               	movlw	64
  1754  000096  6E30               	movwf	USBTransferOnePacket@len,c
  1755  000098  0E02               	movlw	2
  1756  00009A  EC10  F00C         	call	_USBTransferOnePacket
  1757  00009E  C02D  F07C         	movff	?_USBTransferOnePacket,_USB_OutHandle0
  1758  0000A2  C02E  F07D         	movff	?_USBTransferOnePacket+1,_USB_OutHandle0+1
  1759                           
  1760                           ;blaster.c: 389: RxSize = 0;
  1761  0000A6  0E00               	movlw	0
  1762  0000A8  0100               	movlb	0	; () banked
  1763  0000AA  6F84               	movwf	_RxSize& (0+255),b
  1764                           
  1765                           ; BSR set to: 0
  1766                           ;blaster.c: 390: Rx_State = RX_PPB_0;
  1767  0000AC  0E01               	movlw	1
  1768  0000AE  D099               	goto	L1
  1769  0000B0                     l3922:
  1770                           
  1771                           ; BSR set to: 0
  1772                           ;blaster.c: 397: {
  1773                           ;blaster.c: 398: if (RxSize == 0)
  1774  0000B0  0100               	movlb	0	; () banked
  1775  0000B2  5184               	movf	_RxSize& (0+255),w,b
  1776  0000B4  0100               	movlb	0	; () banked
  1777  0000B6  A4D8               	btfss	status,2,c
  1778  0000B8  D1B2               	goto	l4040
  1779                           
  1780                           ; BSR set to: 0
  1781                           ;blaster.c: 399: {
  1782                           ;blaster.c: 400: if (!(USB_OutHandle0==0?0:((volatile BDT_ENTRY*)USB_OutHandle0)->STAT.U
      +                          OWN))
  1783  0000BA  0100               	movlb	0	; () banked
  1784  0000BC  517C               	movf	_USB_OutHandle0& (0+255),w,b
  1785  0000BE  0100               	movlb	0	; () banked
  1786  0000C0  117D               	iorwf	(_USB_OutHandle0+1)& (0+255),w,b
  1787  0000C2  B4D8               	btfsc	status,2,c
  1788  0000C4  D013               	goto	l3928
  1789                           
  1790                           ; BSR set to: 0
  1791  0000C6  C07C  FFD9         	movff	_USB_OutHandle0,fsr2l
  1792  0000CA  C07D  FFDA         	movff	_USB_OutHandle0+1,fsr2h
  1793  0000CE  0100               	movlb	0	; () banked
  1794  0000D0  AEDF               	btfss	indf2,7,c
  1795  0000D2  D004               	goto	u3000
  1796  0000D4  0100               	movlb	0	; () banked
  1797  0000D6  6B8C               	clrf	??_Main_Task_Blaster& (0+255),b
  1798  0000D8  2B8C               	incf	??_Main_Task_Blaster& (0+255),f,b
  1799  0000DA  D002               	goto	u3008
  1800  0000DC                     u3000:
  1801  0000DC  0100               	movlb	0	; () banked
  1802  0000DE  6B8C               	clrf	??_Main_Task_Blaster& (0+255),b
  1803  0000E0                     u3008:
  1804  0000E0  0100               	movlb	0	; () banked
  1805  0000E2  518C               	movf	??_Main_Task_Blaster& (0+255),w,b
  1806  0000E4  0100               	movlb	0	; () banked
  1807  0000E6  6F8E               	movwf	_Main_Task_Blaster$1216& (0+255),b
  1808  0000E8  6B8F               	clrf	(_Main_Task_Blaster$1216+1)& (0+255),b
  1809  0000EA  D005               	goto	l3930
  1810  0000EC                     l3928:
  1811                           
  1812                           ; BSR set to: 0
  1813  0000EC  0E00               	movlw	0
  1814  0000EE  0100               	movlb	0	; () banked
  1815  0000F0  6F8F               	movwf	(_Main_Task_Blaster$1216+1)& (0+255),b
  1816  0000F2  0E00               	movlw	0
  1817  0000F4  6F8E               	movwf	_Main_Task_Blaster$1216& (0+255),b
  1818  0000F6                     l3930:
  1819                           
  1820                           ; BSR set to: 0
  1821  0000F6  0100               	movlb	0	; () banked
  1822  0000F8  518E               	movf	_Main_Task_Blaster$1216& (0+255),w,b
  1823  0000FA  0100               	movlb	0	; () banked
  1824  0000FC  118F               	iorwf	(_Main_Task_Blaster$1216+1)& (0+255),w,b
  1825  0000FE  A4D8               	btfss	status,2,c
  1826  000100  D18E               	goto	l4040
  1827                           
  1828                           ; BSR set to: 0
  1829                           ;blaster.c: 401: {
  1830                           ;blaster.c: 402: RxSize = (((volatile BDT_ENTRY*)USB_OutHandle0)->CNT);
  1831  000102  0100               	movlb	0	; () banked
  1832  000104  EE20 F001          	lfsr	2,1
  1833  000108  517C               	movf	_USB_OutHandle0& (0+255),w,b
  1834  00010A  26D9               	addwf	fsr2l,f,c
  1835  00010C  517D               	movf	(_USB_OutHandle0+1)& (0+255),w,b
  1836  00010E  22DA               	addwfc	fsr2h,f,c
  1837  000110  50DF               	movf	indf2,w,c
  1838  000112  0100               	movlb	0	; () banked
  1839  000114  6F84               	movwf	_RxSize& (0+255),b
  1840                           
  1841                           ; BSR set to: 0
  1842                           ;blaster.c: 403: ValidPPB = 0;
  1843  000116  0E00               	movlw	0
  1844  000118  0100               	movlb	0	; () banked
  1845  00011A  6F87               	movwf	_ValidPPB& (0+255),b
  1846                           
  1847                           ; BSR set to: 0
  1848                           ;blaster.c: 404: RxPtr = 0;
  1849  00011C  0E00               	movlw	0
  1850  00011E  0100               	movlb	0	; () banked
  1851  000120  6F83               	movwf	_RxPtr& (0+255),b
  1852                           
  1853                           ; BSR set to: 0
  1854                           ;blaster.c: 405: Rx_State = RX_PPB_1;
  1855  000122  0E02               	movlw	2
  1856  000124  0100               	movlb	0	; () banked
  1857  000126  6F85               	movwf	_Rx_State& (0+255),b
  1858                           
  1859                           ; BSR set to: 0
  1860                           ;blaster.c: 408: USB_OutHandle1 = USBTransferOnePacket(2,0,(uint8_t*)&USB_OutPacket[1],6
      +                          4);
  1861  000128  0E00               	movlw	0
  1862  00012A  6E2D               	movwf	USBTransferOnePacket@dir,c
  1863  00012C  0EC0               	movlw	192
  1864  00012E  6E2E               	movwf	USBTransferOnePacket@data,c
  1865  000130  0E02               	movlw	2
  1866  000132  6E2F               	movwf	USBTransferOnePacket@data+1,c
  1867  000134  0E40               	movlw	64
  1868  000136  6E30               	movwf	USBTransferOnePacket@len,c
  1869  000138  0E02               	movlw	2
  1870  00013A  EC10  F00C         	call	_USBTransferOnePacket
  1871  00013E  C02D  F07E         	movff	?_USBTransferOnePacket,_USB_OutHandle1
  1872  000142  C02E  F07F         	movff	?_USBTransferOnePacket+1,_USB_OutHandle1+1
  1873                           
  1874                           ;blaster.c: 415: }
  1875                           ;blaster.c: 416: }
  1876                           ;blaster.c: 417: break;
  1877  000146  D16B               	goto	l4040
  1878  000148                     l3942:
  1879                           
  1880                           ;blaster.c: 423: {
  1881                           ;blaster.c: 424: if (RxSize == 0)
  1882  000148  0100               	movlb	0	; () banked
  1883  00014A  5184               	movf	_RxSize& (0+255),w,b
  1884  00014C  0100               	movlb	0	; () banked
  1885  00014E  A4D8               	btfss	status,2,c
  1886  000150  D166               	goto	l4040
  1887                           
  1888                           ; BSR set to: 0
  1889                           ;blaster.c: 425: {
  1890                           ;blaster.c: 426: if (!(USB_OutHandle1==0?0:((volatile BDT_ENTRY*)USB_OutHandle1)->STAT.U
      +                          OWN))
  1891  000152  0100               	movlb	0	; () banked
  1892  000154  517E               	movf	_USB_OutHandle1& (0+255),w,b
  1893  000156  0100               	movlb	0	; () banked
  1894  000158  117F               	iorwf	(_USB_OutHandle1+1)& (0+255),w,b
  1895  00015A  B4D8               	btfsc	status,2,c
  1896  00015C  D013               	goto	l3948
  1897                           
  1898                           ; BSR set to: 0
  1899  00015E  C07E  FFD9         	movff	_USB_OutHandle1,fsr2l
  1900  000162  C07F  FFDA         	movff	_USB_OutHandle1+1,fsr2h
  1901  000166  0100               	movlb	0	; () banked
  1902  000168  AEDF               	btfss	indf2,7,c
  1903  00016A  D004               	goto	u3040
  1904  00016C  0100               	movlb	0	; () banked
  1905  00016E  6B8C               	clrf	??_Main_Task_Blaster& (0+255),b
  1906  000170  2B8C               	incf	??_Main_Task_Blaster& (0+255),f,b
  1907  000172  D002               	goto	u3048
  1908  000174                     u3040:
  1909  000174  0100               	movlb	0	; () banked
  1910  000176  6B8C               	clrf	??_Main_Task_Blaster& (0+255),b
  1911  000178                     u3048:
  1912  000178  0100               	movlb	0	; () banked
  1913  00017A  518C               	movf	??_Main_Task_Blaster& (0+255),w,b
  1914  00017C  0100               	movlb	0	; () banked
  1915  00017E  6F90               	movwf	_Main_Task_Blaster$1250& (0+255),b
  1916  000180  6B91               	clrf	(_Main_Task_Blaster$1250+1)& (0+255),b
  1917  000182  D005               	goto	l3950
  1918  000184                     l3948:
  1919                           
  1920                           ; BSR set to: 0
  1921  000184  0E00               	movlw	0
  1922  000186  0100               	movlb	0	; () banked
  1923  000188  6F91               	movwf	(_Main_Task_Blaster$1250+1)& (0+255),b
  1924  00018A  0E00               	movlw	0
  1925  00018C  6F90               	movwf	_Main_Task_Blaster$1250& (0+255),b
  1926  00018E                     l3950:
  1927                           
  1928                           ; BSR set to: 0
  1929  00018E  0100               	movlb	0	; () banked
  1930  000190  5190               	movf	_Main_Task_Blaster$1250& (0+255),w,b
  1931  000192  0100               	movlb	0	; () banked
  1932  000194  1191               	iorwf	(_Main_Task_Blaster$1250+1)& (0+255),w,b
  1933  000196  A4D8               	btfss	status,2,c
  1934  000198  D142               	goto	l4040
  1935                           
  1936                           ; BSR set to: 0
  1937                           ;blaster.c: 427: {
  1938                           ;blaster.c: 428: RxSize = (((volatile BDT_ENTRY*)USB_OutHandle1)->CNT);
  1939  00019A  0100               	movlb	0	; () banked
  1940  00019C  EE20 F001          	lfsr	2,1
  1941  0001A0  517E               	movf	_USB_OutHandle1& (0+255),w,b
  1942  0001A2  26D9               	addwf	fsr2l,f,c
  1943  0001A4  517F               	movf	(_USB_OutHandle1+1)& (0+255),w,b
  1944  0001A6  22DA               	addwfc	fsr2h,f,c
  1945  0001A8  50DF               	movf	indf2,w,c
  1946  0001AA  0100               	movlb	0	; () banked
  1947  0001AC  6F84               	movwf	_RxSize& (0+255),b
  1948                           
  1949                           ; BSR set to: 0
  1950                           ;blaster.c: 429: ValidPPB = 1;
  1951  0001AE  0E01               	movlw	1
  1952  0001B0  0100               	movlb	0	; () banked
  1953  0001B2  6F87               	movwf	_ValidPPB& (0+255),b
  1954                           
  1955                           ; BSR set to: 0
  1956                           ;blaster.c: 430: RxPtr = 0;
  1957  0001B4  0E00               	movlw	0
  1958  0001B6  0100               	movlb	0	; () banked
  1959  0001B8  6F83               	movwf	_RxPtr& (0+255),b
  1960                           
  1961                           ; BSR set to: 0
  1962                           ;blaster.c: 431: Rx_State = RX_PPB_0;
  1963  0001BA  0E01               	movlw	1
  1964  0001BC  0100               	movlb	0	; () banked
  1965  0001BE  6F85               	movwf	_Rx_State& (0+255),b
  1966                           
  1967                           ; BSR set to: 0
  1968                           ;blaster.c: 434: USB_OutHandle0 = USBTransferOnePacket(2,0,(uint8_t*)&USB_OutPacket[0],6
      +                          4);
  1969  0001C0  0E00               	movlw	0
  1970  0001C2  6E2D               	movwf	USBTransferOnePacket@dir,c
  1971  0001C4  0E80               	movlw	128
  1972  0001C6  6E2E               	movwf	USBTransferOnePacket@data,c
  1973  0001C8  0E02               	movlw	2
  1974  0001CA  6E2F               	movwf	USBTransferOnePacket@data+1,c
  1975  0001CC  0E40               	movlw	64
  1976  0001CE  6E30               	movwf	USBTransferOnePacket@len,c
  1977  0001D0  0E02               	movlw	2
  1978  0001D2  EC10  F00C         	call	_USBTransferOnePacket
  1979  0001D6  C02D  F07C         	movff	?_USBTransferOnePacket,_USB_OutHandle0
  1980  0001DA  C02E  F07D         	movff	?_USBTransferOnePacket+1,_USB_OutHandle0+1
  1981                           
  1982                           ;blaster.c: 441: }
  1983                           ;blaster.c: 442: }
  1984                           ;blaster.c: 443: break;
  1985  0001DE  D11F               	goto	l4040
  1986  0001E0                     l3962:
  1987                           
  1988                           ;blaster.c: 449: {
  1989                           ;blaster.c: 450: Rx_State = RX_INIT;
  1990  0001E0  0E00               	movlw	0
  1991  0001E2                     L1:
  1992  0001E2  0100               	movlb	0	; () banked
  1993  0001E4  6F85               	movwf	_Rx_State& (0+255),b
  1994                           
  1995                           ; BSR set to: 0
  1996                           ;blaster.c: 452: }
  1997                           ;blaster.c: 453: }
  1998                           
  1999                           ;blaster.c: 451: break;
  2000  0001E6  D11B               	goto	l4040
  2001  0001E8                     l3966:
  2002  0001E8  0100               	movlb	0	; () banked
  2003  0001EA  5185               	movf	_Rx_State& (0+255),w,b
  2004                           
  2005                           ; Switch size 1, requested type "space"
  2006                           ; Number of cases is 3, Range of values is 0 to 2
  2007                           ; switch strategies available:
  2008                           ; Name         Instructions Cycles
  2009                           ; simple_byte           10     6 (average)
  2010                           ;	Chosen strategy is simple_byte
  2011  0001EC  0A00               	xorlw	0	; case 0
  2012  0001EE  B4D8               	btfsc	status,2,c
  2013  0001F0  D74B               	goto	l3916
  2014  0001F2  0A01               	xorlw	1	; case 1
  2015  0001F4  B4D8               	btfsc	status,2,c
  2016  0001F6  D75C               	goto	l3922
  2017  0001F8  0A03               	xorlw	3	; case 2
  2018  0001FA  B4D8               	btfsc	status,2,c
  2019  0001FC  D7A5               	goto	l3942
  2020  0001FE  D7F0               	goto	l3962
  2021  000200                     l3968:
  2022                           
  2023                           ; BSR set to: 0
  2024                           ;blaster.c: 466: {
  2025                           ;blaster.c: 467: if ((RxSize > 0) && (TXFIFO_Room() >= RxSize))
  2026  000200  0100               	movlb	0	; () banked
  2027  000202  5184               	movf	_RxSize& (0+255),w,b
  2028  000204  0100               	movlb	0	; () banked
  2029  000206  B4D8               	btfsc	status,2,c
  2030  000208  D113               	goto	l4042
  2031                           
  2032                           ; BSR set to: 0
  2033  00020A  0100               	movlb	0	; () banked
  2034  00020C  5184               	movf	_RxSize& (0+255),w,b
  2035  00020E  0100               	movlb	0	; () banked
  2036  000210  6F8C               	movwf	??_Main_Task_Blaster& (0+255),b
  2037  000212  6B8D               	clrf	(??_Main_Task_Blaster+1)& (0+255),b
  2038  000214  EC2D  F011         	call	_TXFIFO_Room	;wreg free
  2039  000218  0100               	movlb	0	; () banked
  2040  00021A  518C               	movf	??_Main_Task_Blaster& (0+255),w,b
  2041  00021C  5C2D               	subwf	?_TXFIFO_Room,w,c
  2042  00021E  0100               	movlb	0	; () banked
  2043  000220  518D               	movf	(??_Main_Task_Blaster+1)& (0+255),w,b
  2044  000222  582E               	subwfb	?_TXFIFO_Room+1,w,c
  2045  000224  A0D8               	btfss	status,0,c
  2046  000226  D104               	goto	l4042
  2047                           
  2048                           ; BSR set to: 0
  2049                           ;blaster.c: 468: {
  2050                           ;blaster.c: 469: JTAG_Mode_PORT();
  2051  000228  EC80  F011         	call	_JTAG_Mode_PORT	;wreg free
  2052                           
  2053                           ;blaster.c: 471: while(RxSize > 0)
  2054  00022C  D090               	goto	l4000
  2055  00022E                     l3974:
  2056                           
  2057                           ;blaster.c: 472: {
  2058                           ;blaster.c: 473: uint8_t opcode;
  2059                           ;blaster.c: 474: opcode = USB_OutPacket[ValidPPB][RxPtr++];
  2060  00022E  0100               	movlb	0	; () banked
  2061  000230  5187               	movf	_ValidPPB& (0+255),w,b
  2062  000232  0D40               	mullw	64
  2063  000234  0E80               	movlw	128
  2064  000236  0100               	movlb	0	; () banked
  2065  000238  6F8C               	movwf	??_Main_Task_Blaster& (0+255),b
  2066  00023A  0E02               	movlw	2
  2067  00023C  0100               	movlb	0	; () banked
  2068  00023E  6F8D               	movwf	(??_Main_Task_Blaster+1)& (0+255),b
  2069  000240  50F3               	movf	prodl,w,c
  2070  000242  0100               	movlb	0	; () banked
  2071  000244  278C               	addwf	??_Main_Task_Blaster& (0+255),f,b
  2072  000246  50F4               	movf	prodh,w,c
  2073  000248  0100               	movlb	0	; () banked
  2074  00024A  238D               	addwfc	(??_Main_Task_Blaster+1)& (0+255),f,b
  2075  00024C  0100               	movlb	0	; () banked
  2076  00024E  5183               	movf	_RxPtr& (0+255),w,b
  2077  000250  0D01               	mullw	1
  2078  000252  50F3               	movf	prodl,w,c
  2079  000254  0100               	movlb	0	; () banked
  2080  000256  258C               	addwf	??_Main_Task_Blaster& (0+255),w,b
  2081  000258  6ED9               	movwf	fsr2l,c
  2082  00025A  50F4               	movf	prodh,w,c
  2083  00025C  0100               	movlb	0	; () banked
  2084  00025E  218D               	addwfc	(??_Main_Task_Blaster+1)& (0+255),w,b
  2085  000260  6EDA               	movwf	fsr2h,c
  2086  000262  50DF               	movf	indf2,w,c
  2087  000264  0100               	movlb	0	; () banked
  2088  000266  6F99               	movwf	Main_Task_Blaster@opcode& (0+255),b
  2089                           
  2090                           ; BSR set to: 0
  2091  000268  0100               	movlb	0	; () banked
  2092  00026A  2B83               	incf	_RxPtr& (0+255),f,b
  2093                           
  2094                           ; BSR set to: 0
  2095                           ;blaster.c: 475: RxSize--;
  2096  00026C  0100               	movlb	0	; () banked
  2097  00026E  0784               	decf	_RxSize& (0+255),f,b
  2098                           
  2099                           ; BSR set to: 0
  2100                           ;blaster.c: 477: Read = opcode & 0x40;
  2101  000270  0100               	movlb	0	; () banked
  2102  000272  5199               	movf	Main_Task_Blaster@opcode& (0+255),w,b
  2103  000274  0B40               	andlw	64
  2104  000276  0100               	movlb	0	; () banked
  2105  000278  6F82               	movwf	_Read& (0+255),b
  2106                           
  2107                           ; BSR set to: 0
  2108                           ;blaster.c: 479: if (opcode & 0x80)
  2109  00027A  0100               	movlb	0	; () banked
  2110  00027C  AF99               	btfss	Main_Task_Blaster@opcode& (0+255),7,b
  2111  00027E  D008               	goto	l3992
  2112                           
  2113                           ; BSR set to: 0
  2114                           ;blaster.c: 480: {
  2115                           ;blaster.c: 481: LATBbits.LATB6 = 0;
  2116  000280  9C8A               	bcf	3978,6,c	;volatile
  2117                           
  2118                           ; BSR set to: 0
  2119                           ;blaster.c: 482: ByteSize = opcode & 0x3f;
  2120  000282  0100               	movlb	0	; () banked
  2121  000284  5199               	movf	Main_Task_Blaster@opcode& (0+255),w,b
  2122  000286  0B3F               	andlw	63
  2123  000288  0100               	movlb	0	; () banked
  2124  00028A  6F80               	movwf	_ByteSize& (0+255),b
  2125                           
  2126                           ; BSR set to: 0
  2127                           ;blaster.c: 483: JTAG_State = JTAG_BYTE_SHIFT;
  2128  00028C  0E01               	movlw	1
  2129  00028E  D0C4               	goto	L63
  2130  000290                     l3992:
  2131                           
  2132                           ; BSR set to: 0
  2133                           ;blaster.c: 495: else
  2134                           ;blaster.c: 496: {
  2135                           ;blaster.c: 497: LATBbits.LATB6 = (opcode & 0x01)? 1 : 0;
  2136  000290  0100               	movlb	0	; () banked
  2137  000292  A199               	btfss	Main_Task_Blaster@opcode& (0+255),0,b
  2138  000294  D004               	goto	u3090
  2139  000296  0100               	movlb	0	; () banked
  2140  000298  6B8C               	clrf	??_Main_Task_Blaster& (0+255),b
  2141  00029A  2B8C               	incf	??_Main_Task_Blaster& (0+255),f,b
  2142  00029C  D002               	goto	u3108
  2143  00029E                     u3090:
  2144  00029E  0100               	movlb	0	; () banked
  2145  0002A0  6B8C               	clrf	??_Main_Task_Blaster& (0+255),b
  2146  0002A2                     u3108:
  2147  0002A2  0100               	movlb	0	; () banked
  2148  0002A4  3B8C               	swapf	??_Main_Task_Blaster& (0+255),f,b
  2149  0002A6  478C               	rlncf	??_Main_Task_Blaster& (0+255),f,b
  2150  0002A8  478C               	rlncf	??_Main_Task_Blaster& (0+255),f,b
  2151  0002AA  508A               	movf	3978,w,c	;volatile
  2152  0002AC  0100               	movlb	0	; () banked
  2153  0002AE  198C               	xorwf	??_Main_Task_Blaster& (0+255),w,b
  2154  0002B0  0BBF               	andlw	-65
  2155  0002B2  198C               	xorwf	??_Main_Task_Blaster& (0+255),w,b
  2156  0002B4  6E8A               	movwf	3978,c	;volatile
  2157                           
  2158                           ;blaster.c: 498: LATCbits.LATC6 = (opcode & 0x02)? 1 : 0;
  2159  0002B6  0100               	movlb	0	; () banked
  2160  0002B8  A399               	btfss	Main_Task_Blaster@opcode& (0+255),1,b
  2161  0002BA  D004               	goto	u3110
  2162  0002BC  0100               	movlb	0	; () banked
  2163  0002BE  6B8C               	clrf	??_Main_Task_Blaster& (0+255),b
  2164  0002C0  2B8C               	incf	??_Main_Task_Blaster& (0+255),f,b
  2165  0002C2  D002               	goto	u3128
  2166  0002C4                     u3110:
  2167  0002C4  0100               	movlb	0	; () banked
  2168  0002C6  6B8C               	clrf	??_Main_Task_Blaster& (0+255),b
  2169  0002C8                     u3128:
  2170  0002C8  0100               	movlb	0	; () banked
  2171  0002CA  3B8C               	swapf	??_Main_Task_Blaster& (0+255),f,b
  2172  0002CC  478C               	rlncf	??_Main_Task_Blaster& (0+255),f,b
  2173  0002CE  478C               	rlncf	??_Main_Task_Blaster& (0+255),f,b
  2174  0002D0  508B               	movf	3979,w,c	;volatile
  2175  0002D2  0100               	movlb	0	; () banked
  2176  0002D4  198C               	xorwf	??_Main_Task_Blaster& (0+255),w,b
  2177  0002D6  0BBF               	andlw	-65
  2178  0002D8  198C               	xorwf	??_Main_Task_Blaster& (0+255),w,b
  2179  0002DA  6E8B               	movwf	3979,c	;volatile
  2180                           
  2181                           ;blaster.c: 499: LATCbits.LATC7 = (opcode & 0x10)? 1 : 0;
  2182  0002DC  0100               	movlb	0	; () banked
  2183  0002DE  A999               	btfss	Main_Task_Blaster@opcode& (0+255),4,b
  2184  0002E0  D004               	goto	u3130
  2185  0002E2  0100               	movlb	0	; () banked
  2186  0002E4  6B8C               	clrf	??_Main_Task_Blaster& (0+255),b
  2187  0002E6  2B8C               	incf	??_Main_Task_Blaster& (0+255),f,b
  2188  0002E8  D002               	goto	u3148
  2189  0002EA                     u3130:
  2190  0002EA  0100               	movlb	0	; () banked
  2191  0002EC  6B8C               	clrf	??_Main_Task_Blaster& (0+255),b
  2192  0002EE                     u3148:
  2193  0002EE  0100               	movlb	0	; () banked
  2194  0002F0  338C               	rrcf	??_Main_Task_Blaster& (0+255),f,b
  2195  0002F2  338C               	rrcf	??_Main_Task_Blaster& (0+255),f,b
  2196  0002F4  508B               	movf	3979,w,c	;volatile
  2197  0002F6  0100               	movlb	0	; () banked
  2198  0002F8  198C               	xorwf	??_Main_Task_Blaster& (0+255),w,b
  2199  0002FA  0B7F               	andlw	-129
  2200  0002FC  198C               	xorwf	??_Main_Task_Blaster& (0+255),w,b
  2201  0002FE  6E8B               	movwf	3979,c	;volatile
  2202                           
  2203                           ;blaster.c: 500: LATCbits.LATC2 = (opcode & 0x20)? 1 : 0;
  2204  000300  0100               	movlb	0	; () banked
  2205  000302  AB99               	btfss	Main_Task_Blaster@opcode& (0+255),5,b
  2206  000304  D004               	goto	u3150
  2207  000306  0100               	movlb	0	; () banked
  2208  000308  6B8C               	clrf	??_Main_Task_Blaster& (0+255),b
  2209  00030A  2B8C               	incf	??_Main_Task_Blaster& (0+255),f,b
  2210  00030C  D002               	goto	u3168
  2211  00030E                     u3150:
  2212  00030E  0100               	movlb	0	; () banked
  2213  000310  6B8C               	clrf	??_Main_Task_Blaster& (0+255),b
  2214  000312                     u3168:
  2215  000312  0100               	movlb	0	; () banked
  2216  000314  478C               	rlncf	??_Main_Task_Blaster& (0+255),f,b
  2217  000316  478C               	rlncf	??_Main_Task_Blaster& (0+255),f,b
  2218  000318  508B               	movf	3979,w,c	;volatile
  2219  00031A  0100               	movlb	0	; () banked
  2220  00031C  198C               	xorwf	??_Main_Task_Blaster& (0+255),w,b
  2221  00031E  0BFB               	andlw	-5
  2222  000320  198C               	xorwf	??_Main_Task_Blaster& (0+255),w,b
  2223  000322  6E8B               	movwf	3979,c	;volatile
  2224                           
  2225                           ; BSR set to: 0
  2226                           ;blaster.c: 501: nCS = (opcode & 0x08)? 1 : 0;
  2227  000324  0100               	movlb	0	; () banked
  2228  000326  A799               	btfss	Main_Task_Blaster@opcode& (0+255),3,b
  2229  000328  D002               	goto	u3170
  2230  00032A  0E01               	movlw	1
  2231  00032C  D001               	goto	u3180
  2232  00032E                     u3170:
  2233  00032E  0E00               	movlw	0
  2234  000330                     u3180:
  2235  000330  0100               	movlb	0	; () banked
  2236  000332  6F88               	movwf	_nCS& (0+255),b
  2237                           
  2238                           ; BSR set to: 0
  2239                           ;blaster.c: 503: if (Read)
  2240  000334  0100               	movlb	0	; () banked
  2241  000336  5182               	movf	_Read& (0+255),w,b
  2242  000338  0100               	movlb	0	; () banked
  2243  00033A  B4D8               	btfsc	status,2,c
  2244  00033C  D008               	goto	l4000
  2245                           
  2246                           ; BSR set to: 0
  2247                           ;blaster.c: 504: {
  2248                           ;blaster.c: 505: TXFIFO_Write(PORTBbits.RB4 | 0x02);
  2249  00033E  A881               	btfss	3969,4,c	;volatile
  2250  000340  D002               	goto	u3200
  2251  000342  0E01               	movlw	1
  2252  000344  D001               	goto	u3206
  2253  000346                     u3200:
  2254  000346  0E00               	movlw	0
  2255  000348                     u3206:
  2256  000348  0902               	iorlw	2
  2257  00034A  EC1E  F011         	call	_TXFIFO_Write
  2258  00034E                     l4000:
  2259  00034E  0100               	movlb	0	; () banked
  2260  000350  5184               	movf	_RxSize& (0+255),w,b
  2261  000352  0100               	movlb	0	; () banked
  2262  000354  B4D8               	btfsc	status,2,c
  2263  000356  D06C               	goto	l4042
  2264  000358  D76A               	goto	l3974
  2265  00035A                     l4002:
  2266                           
  2267                           ; BSR set to: 0
  2268                           ;blaster.c: 526: {
  2269                           ;blaster.c: 527: if ((RxSize > 0) && (TXFIFO_Room() >= RxSize))
  2270  00035A  0100               	movlb	0	; () banked
  2271  00035C  5184               	movf	_RxSize& (0+255),w,b
  2272  00035E  0100               	movlb	0	; () banked
  2273  000360  B4D8               	btfsc	status,2,c
  2274  000362  D055               	goto	l4032
  2275                           
  2276                           ; BSR set to: 0
  2277  000364  0100               	movlb	0	; () banked
  2278  000366  5184               	movf	_RxSize& (0+255),w,b
  2279  000368  0100               	movlb	0	; () banked
  2280  00036A  6F8C               	movwf	??_Main_Task_Blaster& (0+255),b
  2281  00036C  6B8D               	clrf	(??_Main_Task_Blaster+1)& (0+255),b
  2282  00036E  EC2D  F011         	call	_TXFIFO_Room	;wreg free
  2283  000372  0100               	movlb	0	; () banked
  2284  000374  518C               	movf	??_Main_Task_Blaster& (0+255),w,b
  2285  000376  5C2D               	subwf	?_TXFIFO_Room,w,c
  2286  000378  0100               	movlb	0	; () banked
  2287  00037A  518D               	movf	(??_Main_Task_Blaster+1)& (0+255),w,b
  2288  00037C  582E               	subwfb	?_TXFIFO_Room+1,w,c
  2289  00037E  A0D8               	btfss	status,0,c
  2290  000380  D046               	goto	l4032
  2291                           
  2292                           ; BSR set to: 0
  2293                           ;blaster.c: 528: {
  2294                           ;blaster.c: 529: JTAG_Mode_SPI();
  2295  000382  EC79  F011         	call	_JTAG_Mode_SPI	;wreg free
  2296                           
  2297                           ;blaster.c: 531: while((RxSize > 0) && (ByteSize > 0))
  2298  000386  D03A               	goto	l4028
  2299  000388                     l4008:
  2300                           
  2301                           ;blaster.c: 532: {
  2302                           ;blaster.c: 533: uint8_t tx;
  2303                           ;blaster.c: 535: tx = USB_OutPacket[ValidPPB][RxPtr++];
  2304  000388  0100               	movlb	0	; () banked
  2305  00038A  5187               	movf	_ValidPPB& (0+255),w,b
  2306  00038C  0D40               	mullw	64
  2307  00038E  0E80               	movlw	128
  2308  000390  0100               	movlb	0	; () banked
  2309  000392  6F8C               	movwf	??_Main_Task_Blaster& (0+255),b
  2310  000394  0E02               	movlw	2
  2311  000396  0100               	movlb	0	; () banked
  2312  000398  6F8D               	movwf	(??_Main_Task_Blaster+1)& (0+255),b
  2313  00039A  50F3               	movf	prodl,w,c
  2314  00039C  0100               	movlb	0	; () banked
  2315  00039E  278C               	addwf	??_Main_Task_Blaster& (0+255),f,b
  2316  0003A0  50F4               	movf	prodh,w,c
  2317  0003A2  0100               	movlb	0	; () banked
  2318  0003A4  238D               	addwfc	(??_Main_Task_Blaster+1)& (0+255),f,b
  2319  0003A6  0100               	movlb	0	; () banked
  2320  0003A8  5183               	movf	_RxPtr& (0+255),w,b
  2321  0003AA  0D01               	mullw	1
  2322  0003AC  50F3               	movf	prodl,w,c
  2323  0003AE  0100               	movlb	0	; () banked
  2324  0003B0  258C               	addwf	??_Main_Task_Blaster& (0+255),w,b
  2325  0003B2  6ED9               	movwf	fsr2l,c
  2326  0003B4  50F4               	movf	prodh,w,c
  2327  0003B6  0100               	movlb	0	; () banked
  2328  0003B8  218D               	addwfc	(??_Main_Task_Blaster+1)& (0+255),w,b
  2329  0003BA  6EDA               	movwf	fsr2h,c
  2330  0003BC  50DF               	movf	indf2,w,c
  2331  0003BE  0100               	movlb	0	; () banked
  2332  0003C0  6F96               	movwf	Main_Task_Blaster@tx& (0+255),b
  2333                           
  2334                           ; BSR set to: 0
  2335  0003C2  0100               	movlb	0	; () banked
  2336  0003C4  2B83               	incf	_RxPtr& (0+255),f,b
  2337                           
  2338                           ; BSR set to: 0
  2339                           ;blaster.c: 536: JTAG_SPI_Put(tx);
  2340  0003C6  0100               	movlb	0	; () banked
  2341  0003C8  5196               	movf	Main_Task_Blaster@tx& (0+255),w,b
  2342  0003CA  EC6A  F011         	call	_JTAG_SPI_Put
  2343                           
  2344                           ;blaster.c: 537: JTAG_SPI_Wait();
  2345  0003CE  EC7D  F011         	call	_JTAG_SPI_Wait	;wreg free
  2346                           
  2347                           ;blaster.c: 539: if (Read)
  2348  0003D2  0100               	movlb	0	; () banked
  2349  0003D4  5182               	movf	_Read& (0+255),w,b
  2350  0003D6  0100               	movlb	0	; () banked
  2351  0003D8  B4D8               	btfsc	status,2,c
  2352  0003DA  D00C               	goto	l4024
  2353                           
  2354                           ; BSR set to: 0
  2355                           ;blaster.c: 540: {
  2356                           ;blaster.c: 541: if (nCS)
  2357  0003DC  0100               	movlb	0	; () banked
  2358  0003DE  5188               	movf	_nCS& (0+255),w,b
  2359  0003E0  B4D8               	btfsc	status,2,c
  2360  0003E2  D005               	goto	l4022
  2361                           
  2362                           ; BSR set to: 0
  2363                           ;blaster.c: 543: TXFIFO_Write(JTAG_SPI_Get());
  2364  0003E4  EC75  F011         	call	_JTAG_SPI_Get	;wreg free
  2365  0003E8  EC1E  F011         	call	_TXFIFO_Write
  2366  0003EC  D003               	goto	l4024
  2367  0003EE                     l4022:
  2368                           
  2369                           ;blaster.c: 544: else
  2370                           ;blaster.c: 545: TXFIFO_Write(0xff);
  2371  0003EE  0EFF               	movlw	255
  2372  0003F0  EC1E  F011         	call	_TXFIFO_Write
  2373  0003F4                     l4024:
  2374                           
  2375                           ;blaster.c: 546: }
  2376                           ;blaster.c: 547: RxSize--;
  2377  0003F4  0100               	movlb	0	; () banked
  2378  0003F6  0784               	decf	_RxSize& (0+255),f,b
  2379                           
  2380                           ; BSR set to: 0
  2381                           ;blaster.c: 548: ByteSize--;
  2382  0003F8  0100               	movlb	0	; () banked
  2383  0003FA  0780               	decf	_ByteSize& (0+255),f,b
  2384  0003FC                     l4028:
  2385  0003FC  0100               	movlb	0	; () banked
  2386  0003FE  5184               	movf	_RxSize& (0+255),w,b
  2387  000400  0100               	movlb	0	; () banked
  2388  000402  B4D8               	btfsc	status,2,c
  2389  000404  D004               	goto	l4032
  2390                           
  2391                           ; BSR set to: 0
  2392  000406  0100               	movlb	0	; () banked
  2393  000408  5180               	movf	_ByteSize& (0+255),w,b
  2394  00040A  A4D8               	btfss	status,2,c
  2395  00040C  D7BD               	goto	l4008
  2396  00040E                     l4032:
  2397                           
  2398                           ; BSR set to: 0
  2399                           ;blaster.c: 549: }
  2400                           ;blaster.c: 560: }
  2401                           ;blaster.c: 562: if (ByteSize == 0)
  2402  00040E  0100               	movlb	0	; () banked
  2403  000410  5180               	movf	_ByteSize& (0+255),w,b
  2404  000412  A4D8               	btfss	status,2,c
  2405  000414  D00D               	goto	l4042
  2406  000416                     l4036:
  2407                           
  2408                           ; BSR set to: 0
  2409                           ;blaster.c: 572: {
  2410                           ;blaster.c: 573: JTAG_State = JTAG_BIT_BANG;
  2411  000416  0E00               	movlw	0
  2412  000418                     L63:
  2413  000418  0100               	movlb	0	; () banked
  2414  00041A  6F81               	movwf	_JTAG_State& (0+255),b
  2415                           
  2416                           ; BSR set to: 0
  2417                           ;blaster.c: 575: }
  2418                           ;blaster.c: 576: }
  2419                           
  2420                           ;blaster.c: 574: break;
  2421  00041C  D009               	goto	l4042
  2422  00041E                     l4040:
  2423  00041E  0100               	movlb	0	; () banked
  2424  000420  5181               	movf	_JTAG_State& (0+255),w,b
  2425                           
  2426                           ; Switch size 1, requested type "space"
  2427                           ; Number of cases is 2, Range of values is 0 to 1
  2428                           ; switch strategies available:
  2429                           ; Name         Instructions Cycles
  2430                           ; simple_byte            7     4 (average)
  2431                           ;	Chosen strategy is simple_byte
  2432  000422  0A00               	xorlw	0	; case 0
  2433  000424  B4D8               	btfsc	status,2,c
  2434  000426  D6EC               	goto	l3968
  2435  000428  0A01               	xorlw	1	; case 1
  2436  00042A  B4D8               	btfsc	status,2,c
  2437  00042C  D796               	goto	l4002
  2438  00042E  D7F3               	goto	l4036
  2439  000430                     l4042:
  2440                           
  2441                           ; BSR set to: 0
  2442                           ;blaster.c: 582: if (!(USB_InHandle0==0?0:((volatile BDT_ENTRY*)USB_InHandle0)->STAT.UOW
      +                          N))
  2443  000430  0100               	movlb	0	; () banked
  2444  000432  517A               	movf	_USB_InHandle0& (0+255),w,b
  2445  000434  0100               	movlb	0	; () banked
  2446  000436  117B               	iorwf	(_USB_InHandle0+1)& (0+255),w,b
  2447  000438  B4D8               	btfsc	status,2,c
  2448  00043A  D013               	goto	l4046
  2449                           
  2450                           ; BSR set to: 0
  2451  00043C  C07A  FFD9         	movff	_USB_InHandle0,fsr2l
  2452  000440  C07B  FFDA         	movff	_USB_InHandle0+1,fsr2h
  2453  000444  0100               	movlb	0	; () banked
  2454  000446  AEDF               	btfss	indf2,7,c
  2455  000448  D004               	goto	u3300
  2456  00044A  0100               	movlb	0	; () banked
  2457  00044C  6B8C               	clrf	??_Main_Task_Blaster& (0+255),b
  2458  00044E  2B8C               	incf	??_Main_Task_Blaster& (0+255),f,b
  2459  000450  D002               	goto	u3308
  2460  000452                     u3300:
  2461  000452  0100               	movlb	0	; () banked
  2462  000454  6B8C               	clrf	??_Main_Task_Blaster& (0+255),b
  2463  000456                     u3308:
  2464  000456  0100               	movlb	0	; () banked
  2465  000458  518C               	movf	??_Main_Task_Blaster& (0+255),w,b
  2466  00045A  0100               	movlb	0	; () banked
  2467  00045C  6F92               	movwf	_Main_Task_Blaster$1297& (0+255),b
  2468  00045E  6B93               	clrf	(_Main_Task_Blaster$1297+1)& (0+255),b
  2469  000460  D005               	goto	l4048
  2470  000462                     l4046:
  2471                           
  2472                           ; BSR set to: 0
  2473  000462  0E00               	movlw	0
  2474  000464  0100               	movlb	0	; () banked
  2475  000466  6F93               	movwf	(_Main_Task_Blaster$1297+1)& (0+255),b
  2476  000468  0E00               	movlw	0
  2477  00046A  6F92               	movwf	_Main_Task_Blaster$1297& (0+255),b
  2478  00046C                     l4048:
  2479                           
  2480                           ; BSR set to: 0
  2481  00046C  0100               	movlb	0	; () banked
  2482  00046E  5192               	movf	_Main_Task_Blaster$1297& (0+255),w,b
  2483  000470  0100               	movlb	0	; () banked
  2484  000472  1193               	iorwf	(_Main_Task_Blaster$1297+1)& (0+255),w,b
  2485  000474  A4D8               	btfss	status,2,c
  2486  000476  0012               	return	
  2487                           
  2488                           ; BSR set to: 0
  2489                           ;blaster.c: 583: {
  2490                           ;blaster.c: 584: uint8_t txfifo_size;
  2491                           ;blaster.c: 586: txfifo_size = TXFIFO_Fill();
  2492  000478  EC70  F011         	call	_TXFIFO_Fill	;wreg free
  2493  00047C  502D               	movf	?_TXFIFO_Fill,w,c
  2494  00047E  0100               	movlb	0	; () banked
  2495  000480  6F98               	movwf	Main_Task_Blaster@txfifo_size& (0+255),b
  2496                           
  2497                           ; BSR set to: 0
  2498                           ;blaster.c: 600: if (txfifo_size > 0)
  2499  000482  0100               	movlb	0	; () banked
  2500  000484  5198               	movf	Main_Task_Blaster@txfifo_size& (0+255),w,b
  2501  000486  0100               	movlb	0	; () banked
  2502  000488  B4D8               	btfsc	status,2,c
  2503  00048A  D032               	goto	l4066
  2504                           
  2505                           ; BSR set to: 0
  2506                           ;blaster.c: 601: {
  2507                           ;blaster.c: 602: uint8_t txsize;
  2508                           ;blaster.c: 603: txsize = (txfifo_size < 62)? txfifo_size : 62;
  2509  00048C  0E3D               	movlw	61
  2510  00048E  0100               	movlb	0	; () banked
  2511  000490  6598               	cpfsgt	Main_Task_Blaster@txfifo_size& (0+255),b
  2512  000492  D006               	goto	l325
  2513                           
  2514                           ; BSR set to: 0
  2515  000494  0E00               	movlw	0
  2516  000496  0100               	movlb	0	; () banked
  2517  000498  6F95               	movwf	(_Main_Task_Blaster$1301+1)& (0+255),b
  2518  00049A  0E3E               	movlw	62
  2519  00049C  6F94               	movwf	_Main_Task_Blaster$1301& (0+255),b
  2520  00049E  D004               	goto	l327
  2521  0004A0                     l325:
  2522                           
  2523                           ; BSR set to: 0
  2524  0004A0  C098  F094         	movff	Main_Task_Blaster@txfifo_size,_Main_Task_Blaster$1301
  2525  0004A4  0100               	movlb	0	; () banked
  2526  0004A6  6B95               	clrf	(_Main_Task_Blaster$1301+1)& (0+255),b
  2527  0004A8                     l327:
  2528                           
  2529                           ; BSR set to: 0
  2530  0004A8  C094  F097         	movff	_Main_Task_Blaster$1301,Main_Task_Blaster@txsize
  2531                           
  2532                           ; BSR set to: 0
  2533                           ;blaster.c: 606: USB_InPacket[0] = 0x31;
  2534  0004AC  0E31               	movlw	49
  2535  0004AE  0102               	movlb	2	; () banked
  2536  0004B0  6F40               	movwf	64,b	;volatile
  2537                           
  2538                           ;blaster.c: 607: USB_InPacket[1] = 0x60;
  2539  0004B2  0E60               	movlw	96
  2540  0004B4  0102               	movlb	2	; () banked
  2541  0004B6  6F41               	movwf	65,b	;volatile
  2542                           
  2543                           ; BSR set to: 2
  2544                           ;blaster.c: 610: TXFIFO_Read((uint8_t*)(USB_InPacket + 2), txsize);
  2545  0004B8  0E42               	movlw	66
  2546  0004BA  6E2D               	movwf	TXFIFO_Read@ptr,c
  2547  0004BC  0E02               	movlw	2
  2548  0004BE  6E2E               	movwf	TXFIFO_Read@ptr+1,c
  2549  0004C0  C097  F02F         	movff	Main_Task_Blaster@txsize,TXFIFO_Read@size
  2550  0004C4  ECF5  F00F         	call	_TXFIFO_Read	;wreg free
  2551                           
  2552                           ;blaster.c: 612: USB_InHandle0 = USBTransferOnePacket(1,1,(uint8_t*)&USB_InPacket,txsize
      +                           + 2);
  2553  0004C8  0E01               	movlw	1
  2554  0004CA  6E2D               	movwf	USBTransferOnePacket@dir,c
  2555  0004CC  0E40               	movlw	64
  2556  0004CE  6E2E               	movwf	USBTransferOnePacket@data,c
  2557  0004D0  0E02               	movlw	2
  2558  0004D2  6E2F               	movwf	USBTransferOnePacket@data+1,c
  2559  0004D4  0100               	movlb	0	; () banked
  2560  0004D6  5197               	movf	Main_Task_Blaster@txsize& (0+255),w,b
  2561  0004D8  0F02               	addlw	2
  2562  0004DA  6E30               	movwf	USBTransferOnePacket@len,c
  2563  0004DC  0E01               	movlw	1
  2564  0004DE  EC10  F00C         	call	_USBTransferOnePacket
  2565  0004E2  C02D  F07A         	movff	?_USBTransferOnePacket,_USB_InHandle0
  2566  0004E6  C02E  F07B         	movff	?_USBTransferOnePacket+1,_USB_InHandle0+1
  2567                           
  2568                           ;blaster.c: 614: TIMER0_Start_10ms();
  2569  0004EA  EC48  F011         	call	_TIMER0_Start_10ms	;wreg free
  2570                           
  2571                           ;blaster.c: 615: }
  2572  0004EE  0012               	return	
  2573  0004F0                     l4066:
  2574                           
  2575                           ;blaster.c: 619: else if (TIMER0_Reach_10ms())
  2576  0004F0  EC5C  F011         	call	_TIMER0_Reach_10ms	;wreg free
  2577  0004F4  0900               	iorlw	0
  2578  0004F6  B4D8               	btfsc	status,2,c
  2579  0004F8  0012               	return	
  2580                           
  2581                           ;blaster.c: 620: {
  2582                           ;blaster.c: 622: USB_InPacket[0] = 0x31;
  2583  0004FA  0E31               	movlw	49
  2584  0004FC  0102               	movlb	2	; () banked
  2585  0004FE  6F40               	movwf	64,b	;volatile
  2586                           
  2587                           ;blaster.c: 623: USB_InPacket[1] = 0x60;
  2588  000500  0E60               	movlw	96
  2589  000502  0102               	movlb	2	; () banked
  2590  000504  6F41               	movwf	65,b	;volatile
  2591                           
  2592                           ; BSR set to: 2
  2593                           ;blaster.c: 626: USB_InHandle0 = USBTransferOnePacket(1,1,(uint8_t*)&USB_InPacket,2);
  2594  000506  0E01               	movlw	1
  2595  000508  6E2D               	movwf	USBTransferOnePacket@dir,c
  2596  00050A  0E40               	movlw	64
  2597  00050C  6E2E               	movwf	USBTransferOnePacket@data,c
  2598  00050E  0E02               	movlw	2
  2599  000510  6E2F               	movwf	USBTransferOnePacket@data+1,c
  2600  000512  0E02               	movlw	2
  2601  000514  6E30               	movwf	USBTransferOnePacket@len,c
  2602  000516  0E01               	movlw	1
  2603  000518  EC10  F00C         	call	_USBTransferOnePacket
  2604  00051C  C02D  F07A         	movff	?_USBTransferOnePacket,_USB_InHandle0
  2605  000520  C02E  F07B         	movff	?_USBTransferOnePacket+1,_USB_InHandle0+1
  2606                           
  2607                           ;blaster.c: 628: TIMER0_Start_10ms();
  2608  000524  EC48  F011         	call	_TIMER0_Start_10ms	;wreg free
  2609  000528  0012               	return	
  2610  00052A                     __end_of_Main_Task_Blaster:
  2611                           	opt stack 0
  2612                           tblptru	equ	0xFF8
  2613                           prodh	equ	0xFF4
  2614                           prodl	equ	0xFF3
  2615                           intcon	equ	0xFF2
  2616                           postinc0	equ	0xFEE
  2617                           wreg	equ	0xFE8
  2618                           postdec1	equ	0xFE5
  2619                           fsr1h	equ	0xFE2
  2620                           fsr1l	equ	0xFE1
  2621                           indf2	equ	0xFDF
  2622                           postinc2	equ	0xFDE
  2623                           postdec2	equ	0xFDD
  2624                           fsr2h	equ	0xFDA
  2625                           fsr2l	equ	0xFD9
  2626                           status	equ	0xFD8
  2627                           
  2628 ;; *************** function _USBTransferOnePacket *****************
  2629 ;; Defined at:
  2630 ;;		line 995 in file "../../mla/framework/usb/src/usb_device.c"
  2631 ;; Parameters:    Size  Location     Type
  2632 ;;  ep              1    wreg     unsigned char 
  2633 ;;  dir             1   44[COMRAM] unsigned char 
  2634 ;;  data            2   45[COMRAM] PTR unsigned char 
  2635 ;;		 -> USB_InPacket(64), USB_OutPacket(128), 
  2636 ;;  len             1   47[COMRAM] unsigned char 
  2637 ;; Auto vars:     Size  Location     Type
  2638 ;;  ep              1    0[BANK0 ] unsigned char 
  2639 ;;  handle          2    1[BANK0 ] PTR volatile struct __BD
  2640 ;;		 -> BDT(48), NULL(0), 
  2641 ;; Return value:  Size  Location     Type
  2642 ;;                  2   44[COMRAM] PTR void 
  2643 ;; Registers used:
  2644 ;;		wreg, fsr2l, fsr2h, status,2, status,0, prodl, prodh
  2645 ;; Tracked objects:
  2646 ;;		On entry : 0/0
  2647 ;;		On exit  : 0/0
  2648 ;;		Unchanged: 0/0
  2649 ;; Data sizes:     COMRAM   BANK0   BANK1
  2650 ;;      Params:         4       0       0
  2651 ;;      Locals:         0       3       0
  2652 ;;      Temps:          0       0       0
  2653 ;;      Totals:         4       3       0
  2654 ;;Total ram usage:        7 bytes
  2655 ;; Hardware stack levels used:    1
  2656 ;; Hardware stack levels required when called:   10
  2657 ;; This function calls:
  2658 ;;		Nothing
  2659 ;; This function is called by:
  2660 ;;		_Main_Task_Blaster
  2661 ;; This function uses a non-reentrant model
  2662 ;;
  2663                           
  2664                           	psect	text6
  2665  001820                     __ptext6:
  2666                           	opt stack 0
  2667  001820                     _USBTransferOnePacket:
  2668                           	opt stack 19
  2669                           
  2670                           ;incstack = 0
  2671                           ;USBTransferOnePacket@ep stored from wreg
  2672  001820  0100               	movlb	0	; () banked
  2673  001822  6F89               	movwf	USBTransferOnePacket@ep& (0+255),b
  2674                           
  2675                           ;usb_device.c: 997: volatile BDT_ENTRY* handle;
  2676                           ;usb_device.c: 1000: if(dir != 0)
  2677  001824  502D               	movf	USBTransferOnePacket@dir,w,c
  2678  001826  B4D8               	btfsc	status,2,c
  2679  001828  D008               	goto	l3652
  2680                           
  2681                           ;usb_device.c: 1001: {
  2682                           ;usb_device.c: 1003: handle = pBDTEntryIn[ep];
  2683  00182A  0100               	movlb	0	; () banked
  2684  00182C  5189               	movf	USBTransferOnePacket@ep& (0+255),w,b
  2685  00182E  0D02               	mullw	2
  2686  001830  0E68               	movlw	low _pBDTEntryIn
  2687  001832  24F3               	addwf	prodl,w,c
  2688  001834  6ED9               	movwf	fsr2l,c
  2689  001836  0E00               	movlw	high _pBDTEntryIn
  2690  001838  D007               	goto	L3
  2691  00183A                     l3652:
  2692                           
  2693                           ;usb_device.c: 1005: else
  2694                           ;usb_device.c: 1006: {
  2695                           ;usb_device.c: 1008: handle = pBDTEntryOut[ep];
  2696  00183A  0100               	movlb	0	; () banked
  2697  00183C  5189               	movf	USBTransferOnePacket@ep& (0+255),w,b
  2698  00183E  0D02               	mullw	2
  2699  001840  0E6E               	movlw	low _pBDTEntryOut
  2700  001842  24F3               	addwf	prodl,w,c
  2701  001844  6ED9               	movwf	fsr2l,c
  2702  001846  0E00               	movlw	high _pBDTEntryOut
  2703  001848                     L3:
  2704  001848  20F4               	addwfc	prodh,w,c
  2705  00184A  6EDA               	movwf	fsr2h,c
  2706  00184C  CFDE F08A          	movff	postinc2,USBTransferOnePacket@handle
  2707  001850  CFDD F08B          	movff	postdec2,USBTransferOnePacket@handle+1
  2708                           
  2709                           ; BSR set to: 0
  2710                           ;usb_device.c: 1009: }
  2711                           ;usb_device.c: 1013: if(handle == 0)
  2712                           
  2713                           ; BSR set to: 0
  2714  001854  0100               	movlb	0	; () banked
  2715  001856  518A               	movf	USBTransferOnePacket@handle& (0+255),w,b
  2716  001858  0100               	movlb	0	; () banked
  2717  00185A  118B               	iorwf	(USBTransferOnePacket@handle+1)& (0+255),w,b
  2718  00185C  A4D8               	btfss	status,2,c
  2719  00185E  D005               	goto	l3660
  2720                           
  2721                           ; BSR set to: 0
  2722                           ;usb_device.c: 1014: {
  2723                           ;usb_device.c: 1015: return 0;
  2724  001860  0E00               	movlw	0
  2725  001862  6E2D               	movwf	?_USBTransferOnePacket,c
  2726  001864  0E00               	movlw	0
  2727  001866  6E2E               	movwf	?_USBTransferOnePacket+1,c
  2728                           
  2729                           ; BSR set to: 0
  2730  001868  0012               	return	
  2731  00186A                     l3660:
  2732                           
  2733                           ; BSR set to: 0
  2734                           ;usb_device.c: 1016: }
  2735                           ;usb_device.c: 1029: handle->ADR = ((uint16_t)(data));
  2736  00186A  0100               	movlb	0	; () banked
  2737  00186C  EE20 F002          	lfsr	2,2
  2738  001870  518A               	movf	USBTransferOnePacket@handle& (0+255),w,b
  2739  001872  26D9               	addwf	fsr2l,f,c
  2740  001874  518B               	movf	(USBTransferOnePacket@handle+1)& (0+255),w,b
  2741  001876  22DA               	addwfc	fsr2h,f,c
  2742  001878  C02E  FFDE         	movff	USBTransferOnePacket@data,postinc2
  2743  00187C  C02F  FFDD         	movff	USBTransferOnePacket@data+1,postdec2
  2744                           
  2745                           ;usb_device.c: 1030: handle->CNT = len;
  2746  001880  0100               	movlb	0	; () banked
  2747  001882  EE20 F001          	lfsr	2,1
  2748  001886  518A               	movf	USBTransferOnePacket@handle& (0+255),w,b
  2749  001888  26D9               	addwf	fsr2l,f,c
  2750  00188A  518B               	movf	(USBTransferOnePacket@handle+1)& (0+255),w,b
  2751  00188C  22DA               	addwfc	fsr2h,f,c
  2752  00188E  C030  FFDF         	movff	USBTransferOnePacket@len,indf2
  2753                           
  2754                           ; BSR set to: 0
  2755                           ;usb_device.c: 1031: handle->STAT.Val &= 0x40;
  2756  001892  C08A  FFD9         	movff	USBTransferOnePacket@handle,fsr2l
  2757  001896  C08B  FFDA         	movff	USBTransferOnePacket@handle+1,fsr2h
  2758  00189A  0E40               	movlw	64
  2759  00189C  16DF               	andwf	indf2,f,c
  2760                           
  2761                           ; BSR set to: 0
  2762                           ;usb_device.c: 1032: handle->STAT.Val |= (0x08 & 0x08);
  2763  00189E  C08A  FFD9         	movff	USBTransferOnePacket@handle,fsr2l
  2764  0018A2  C08B  FFDA         	movff	USBTransferOnePacket@handle+1,fsr2h
  2765  0018A6  0E00               	movlw	0
  2766  0018A8  86DB               	bsf	plusw2,3,c
  2767                           
  2768                           ; BSR set to: 0
  2769                           ;usb_device.c: 1033: handle->STAT.Val |= 0x80;
  2770  0018AA  C08A  FFD9         	movff	USBTransferOnePacket@handle,fsr2l
  2771  0018AE  C08B  FFDA         	movff	USBTransferOnePacket@handle+1,fsr2h
  2772  0018B2  0E00               	movlw	0
  2773  0018B4  8EDB               	bsf	plusw2,7,c
  2774                           
  2775                           ; BSR set to: 0
  2776                           ;usb_device.c: 1036: if(dir != 0)
  2777  0018B6  502D               	movf	USBTransferOnePacket@dir,w,c
  2778  0018B8  B4D8               	btfsc	status,2,c
  2779  0018BA  D008               	goto	l3672
  2780                           
  2781                           ; BSR set to: 0
  2782                           ;usb_device.c: 1037: {
  2783                           ;usb_device.c: 1039: {((uint8_t_VAL*)&pBDTEntryIn[ep])->Val ^= 0x0004;};
  2784  0018BC  0100               	movlb	0	; () banked
  2785  0018BE  5189               	movf	USBTransferOnePacket@ep& (0+255),w,b
  2786  0018C0  0D02               	mullw	2
  2787  0018C2  0E68               	movlw	low _pBDTEntryIn
  2788  0018C4  24F3               	addwf	prodl,w,c
  2789  0018C6  6ED9               	movwf	fsr2l,c
  2790  0018C8  0E00               	movlw	high _pBDTEntryIn
  2791  0018CA  D007               	goto	L4
  2792  0018CC                     l3672:
  2793                           
  2794                           ; BSR set to: 0
  2795                           ;usb_device.c: 1041: else
  2796                           ;usb_device.c: 1042: {
  2797                           ;usb_device.c: 1044: {((uint8_t_VAL*)&pBDTEntryOut[ep])->Val ^= 0x0004;};
  2798  0018CC  0100               	movlb	0	; () banked
  2799  0018CE  5189               	movf	USBTransferOnePacket@ep& (0+255),w,b
  2800  0018D0  0D02               	mullw	2
  2801  0018D2  0E6E               	movlw	low _pBDTEntryOut
  2802  0018D4  24F3               	addwf	prodl,w,c
  2803  0018D6  6ED9               	movwf	fsr2l,c
  2804  0018D8  0E00               	movlw	high _pBDTEntryOut
  2805  0018DA                     L4:
  2806  0018DA  20F4               	addwfc	prodh,w,c
  2807  0018DC  6EDA               	movwf	fsr2h,c
  2808  0018DE  0E04               	movlw	4
  2809  0018E0  1ADF               	xorwf	indf2,f,c
  2810                           
  2811                           ; BSR set to: 0
  2812                           ;usb_device.c: 1045: }
  2813                           ;usb_device.c: 1046: return (void*)handle;
  2814                           
  2815                           ; BSR set to: 0
  2816  0018E2  C08A  F02D         	movff	USBTransferOnePacket@handle,?_USBTransferOnePacket
  2817  0018E6  C08B  F02E         	movff	USBTransferOnePacket@handle+1,?_USBTransferOnePacket+1
  2818  0018EA  0012               	return	
  2819  0018EC                     __end_of_USBTransferOnePacket:
  2820                           	opt stack 0
  2821                           tblptru	equ	0xFF8
  2822                           prodh	equ	0xFF4
  2823                           prodl	equ	0xFF3
  2824                           intcon	equ	0xFF2
  2825                           postinc0	equ	0xFEE
  2826                           wreg	equ	0xFE8
  2827                           postdec1	equ	0xFE5
  2828                           fsr1h	equ	0xFE2
  2829                           fsr1l	equ	0xFE1
  2830                           indf2	equ	0xFDF
  2831                           postinc2	equ	0xFDE
  2832                           postdec2	equ	0xFDD
  2833                           plusw2	equ	0xFDB
  2834                           fsr2h	equ	0xFDA
  2835                           fsr2l	equ	0xFD9
  2836                           status	equ	0xFD8
  2837                           
  2838 ;; *************** function _TXFIFO_Write *****************
  2839 ;; Defined at:
  2840 ;;		line 307 in file "../src/blaster.c"
  2841 ;; Parameters:    Size  Location     Type
  2842 ;;  data            1    wreg     unsigned char 
  2843 ;; Auto vars:     Size  Location     Type
  2844 ;;  data            1   44[COMRAM] unsigned char 
  2845 ;; Return value:  Size  Location     Type
  2846 ;;                  1    wreg      void 
  2847 ;; Registers used:
  2848 ;;		wreg, fsr2l, fsr2h, status,2, status,0, prodl, prodh
  2849 ;; Tracked objects:
  2850 ;;		On entry : 0/0
  2851 ;;		On exit  : 0/0
  2852 ;;		Unchanged: 0/0
  2853 ;; Data sizes:     COMRAM   BANK0   BANK1
  2854 ;;      Params:         0       0       0
  2855 ;;      Locals:         1       0       0
  2856 ;;      Temps:          0       0       0
  2857 ;;      Totals:         1       0       0
  2858 ;;Total ram usage:        1 bytes
  2859 ;; Hardware stack levels used:    1
  2860 ;; Hardware stack levels required when called:   10
  2861 ;; This function calls:
  2862 ;;		Nothing
  2863 ;; This function is called by:
  2864 ;;		_Main_Task_Blaster
  2865 ;; This function uses a non-reentrant model
  2866 ;;
  2867                           
  2868                           	psect	text7
  2869  00223C                     __ptext7:
  2870                           	opt stack 0
  2871  00223C                     _TXFIFO_Write:
  2872                           	opt stack 19
  2873                           
  2874                           ; BSR set to: 0
  2875                           ;incstack = 0
  2876                           ;TXFIFO_Write@data stored from wreg
  2877  00223C  6E2D               	movwf	TXFIFO_Write@data,c
  2878                           
  2879                           ;blaster.c: 309: TXFIFO[TXFIFO_wp++] = data;
  2880  00223E  5044               	movf	_TXFIFO_wp,w,c
  2881  002240  0D01               	mullw	1
  2882  002242  0E00               	movlw	low _TXFIFO
  2883  002244  24F3               	addwf	prodl,w,c
  2884  002246  6ED9               	movwf	fsr2l,c
  2885  002248  0E01               	movlw	high _TXFIFO
  2886  00224A  20F4               	addwfc	prodh,w,c
  2887  00224C  6EDA               	movwf	fsr2h,c
  2888  00224E  C02D  FFDF         	movff	TXFIFO_Write@data,indf2
  2889  002252  2A44               	incf	_TXFIFO_wp,f,c
  2890                           
  2891                           ;blaster.c: 310: TXFIFO_ocpy++;
  2892  002254  4A39               	infsnz	_TXFIFO_ocpy,f,c
  2893  002256  2A3A               	incf	_TXFIFO_ocpy+1,f,c
  2894  002258  0012               	return		;funcret
  2895  00225A                     __end_of_TXFIFO_Write:
  2896                           	opt stack 0
  2897                           tblptru	equ	0xFF8
  2898                           prodh	equ	0xFF4
  2899                           prodl	equ	0xFF3
  2900                           intcon	equ	0xFF2
  2901                           postinc0	equ	0xFEE
  2902                           wreg	equ	0xFE8
  2903                           postdec1	equ	0xFE5
  2904                           fsr1h	equ	0xFE2
  2905                           fsr1l	equ	0xFE1
  2906                           indf2	equ	0xFDF
  2907                           postinc2	equ	0xFDE
  2908                           postdec2	equ	0xFDD
  2909                           plusw2	equ	0xFDB
  2910                           fsr2h	equ	0xFDA
  2911                           fsr2l	equ	0xFD9
  2912                           status	equ	0xFD8
  2913                           
  2914 ;; *************** function _TXFIFO_Room *****************
  2915 ;; Defined at:
  2916 ;;		line 337 in file "../src/blaster.c"
  2917 ;; Parameters:    Size  Location     Type
  2918 ;;		None
  2919 ;; Auto vars:     Size  Location     Type
  2920 ;;		None
  2921 ;; Return value:  Size  Location     Type
  2922 ;;                  2   44[COMRAM] unsigned int 
  2923 ;; Registers used:
  2924 ;;		wreg, status,2, status,0
  2925 ;; Tracked objects:
  2926 ;;		On entry : 0/0
  2927 ;;		On exit  : 0/0
  2928 ;;		Unchanged: 0/0
  2929 ;; Data sizes:     COMRAM   BANK0   BANK1
  2930 ;;      Params:         2       0       0
  2931 ;;      Locals:         0       0       0
  2932 ;;      Temps:          2       0       0
  2933 ;;      Totals:         4       0       0
  2934 ;;Total ram usage:        4 bytes
  2935 ;; Hardware stack levels used:    1
  2936 ;; Hardware stack levels required when called:   10
  2937 ;; This function calls:
  2938 ;;		Nothing
  2939 ;; This function is called by:
  2940 ;;		_Main_Task_Blaster
  2941 ;; This function uses a non-reentrant model
  2942 ;;
  2943                           
  2944                           	psect	text8
  2945  00225A                     __ptext8:
  2946                           	opt stack 0
  2947  00225A                     _TXFIFO_Room:
  2948                           	opt stack 19
  2949                           
  2950                           ;blaster.c: 339: return ((256) - TXFIFO_ocpy);
  2951                           
  2952                           ;incstack = 0
  2953  00225A  C039  F02F         	movff	_TXFIFO_ocpy,??_TXFIFO_Room
  2954  00225E  C03A  F030         	movff	_TXFIFO_ocpy+1,??_TXFIFO_Room+1
  2955  002262  1E2F               	comf	??_TXFIFO_Room,f,c
  2956  002264  1E30               	comf	??_TXFIFO_Room+1,f,c
  2957  002266  4A2F               	infsnz	??_TXFIFO_Room,f,c
  2958  002268  2A30               	incf	??_TXFIFO_Room+1,f,c
  2959  00226A  0E00               	movlw	0
  2960  00226C  242F               	addwf	??_TXFIFO_Room,w,c
  2961  00226E  6E2D               	movwf	?_TXFIFO_Room,c
  2962  002270  0E01               	movlw	1
  2963  002272  2030               	addwfc	??_TXFIFO_Room+1,w,c
  2964  002274  6E2E               	movwf	?_TXFIFO_Room+1,c
  2965  002276  0012               	return	
  2966  002278                     __end_of_TXFIFO_Room:
  2967                           	opt stack 0
  2968                           tblptru	equ	0xFF8
  2969                           prodh	equ	0xFF4
  2970                           prodl	equ	0xFF3
  2971                           intcon	equ	0xFF2
  2972                           postinc0	equ	0xFEE
  2973                           wreg	equ	0xFE8
  2974                           postdec1	equ	0xFE5
  2975                           fsr1h	equ	0xFE2
  2976                           fsr1l	equ	0xFE1
  2977                           indf2	equ	0xFDF
  2978                           postinc2	equ	0xFDE
  2979                           postdec2	equ	0xFDD
  2980                           plusw2	equ	0xFDB
  2981                           fsr2h	equ	0xFDA
  2982                           fsr2l	equ	0xFD9
  2983                           status	equ	0xFD8
  2984                           
  2985 ;; *************** function _TXFIFO_Read *****************
  2986 ;; Defined at:
  2987 ;;		line 316 in file "../src/blaster.c"
  2988 ;; Parameters:    Size  Location     Type
  2989 ;;  ptr             2   44[COMRAM] PTR unsigned char 
  2990 ;;		 -> USB_InPacket(64), 
  2991 ;;  size            1   46[COMRAM] unsigned char 
  2992 ;; Auto vars:     Size  Location     Type
  2993 ;;		None
  2994 ;; Return value:  Size  Location     Type
  2995 ;;                  1    wreg      void 
  2996 ;; Registers used:
  2997 ;;		wreg, fsr1l, fsr1h, fsr2l, fsr2h, status,2, status,0, prodl, prodh
  2998 ;; Tracked objects:
  2999 ;;		On entry : 0/0
  3000 ;;		On exit  : 0/0
  3001 ;;		Unchanged: 0/0
  3002 ;; Data sizes:     COMRAM   BANK0   BANK1
  3003 ;;      Params:         3       0       0
  3004 ;;      Locals:         0       0       0
  3005 ;;      Temps:          2       0       0
  3006 ;;      Totals:         5       0       0
  3007 ;;Total ram usage:        5 bytes
  3008 ;; Hardware stack levels used:    1
  3009 ;; Hardware stack levels required when called:   10
  3010 ;; This function calls:
  3011 ;;		Nothing
  3012 ;; This function is called by:
  3013 ;;		_Main_Task_Blaster
  3014 ;; This function uses a non-reentrant model
  3015 ;;
  3016                           
  3017                           	psect	text9
  3018  001FEA                     __ptext9:
  3019                           	opt stack 0
  3020  001FEA                     _TXFIFO_Read:
  3021                           	opt stack 19
  3022                           
  3023                           ;blaster.c: 318: TXFIFO_ocpy = TXFIFO_ocpy - (uint16_t)size;
  3024                           
  3025                           ;incstack = 0
  3026  001FEA  502F               	movf	TXFIFO_Read@size,w,c
  3027  001FEC  6E30               	movwf	??_TXFIFO_Read& (0+255),c
  3028  001FEE  6A31               	clrf	(??_TXFIFO_Read+1)& (0+255),c
  3029  001FF0  1E30               	comf	??_TXFIFO_Read,f,c
  3030  001FF2  1E31               	comf	??_TXFIFO_Read+1,f,c
  3031  001FF4  4A30               	infsnz	??_TXFIFO_Read,f,c
  3032  001FF6  2A31               	incf	??_TXFIFO_Read+1,f,c
  3033  001FF8  5039               	movf	_TXFIFO_ocpy,w,c
  3034  001FFA  2430               	addwf	??_TXFIFO_Read,w,c
  3035  001FFC  6E39               	movwf	_TXFIFO_ocpy,c
  3036  001FFE  503A               	movf	_TXFIFO_ocpy+1,w,c
  3037  002000  2031               	addwfc	??_TXFIFO_Read+1,w,c
  3038  002002  6E3A               	movwf	_TXFIFO_ocpy+1,c
  3039                           
  3040                           ;blaster.c: 319: while(size > 0)
  3041  002004  D012               	goto	l3632
  3042  002006                     l3624:
  3043                           
  3044                           ;blaster.c: 320: {
  3045                           ;blaster.c: 321: *ptr++ = TXFIFO[TXFIFO_rp++];
  3046  002006  5043               	movf	_TXFIFO_rp,w,c
  3047  002008  0D01               	mullw	1
  3048  00200A  0E00               	movlw	low _TXFIFO
  3049  00200C  24F3               	addwf	prodl,w,c
  3050  00200E  6ED9               	movwf	fsr2l,c
  3051  002010  0E01               	movlw	high _TXFIFO
  3052  002012  20F4               	addwfc	prodh,w,c
  3053  002014  6EDA               	movwf	fsr2h,c
  3054  002016  C02D  FFE1         	movff	TXFIFO_Read@ptr,fsr1l
  3055  00201A  C02E  FFE2         	movff	TXFIFO_Read@ptr+1,fsr1h
  3056  00201E  CFDF FFE7          	movff	indf2,indf1
  3057  002022  2A43               	incf	_TXFIFO_rp,f,c
  3058  002024  4A2D               	infsnz	TXFIFO_Read@ptr,f,c
  3059  002026  2A2E               	incf	TXFIFO_Read@ptr+1,f,c
  3060                           
  3061                           ;blaster.c: 322: size--;
  3062  002028  062F               	decf	TXFIFO_Read@size,f,c
  3063  00202A                     l3632:
  3064  00202A  502F               	movf	TXFIFO_Read@size,w,c
  3065  00202C  B4D8               	btfsc	status,2,c
  3066  00202E  0012               	return	
  3067  002030  D7EA               	goto	l3624
  3068  002032                     __end_of_TXFIFO_Read:
  3069                           	opt stack 0
  3070                           tblptru	equ	0xFF8
  3071                           prodh	equ	0xFF4
  3072                           prodl	equ	0xFF3
  3073                           intcon	equ	0xFF2
  3074                           postinc0	equ	0xFEE
  3075                           wreg	equ	0xFE8
  3076                           indf1	equ	0xFE7
  3077                           postdec1	equ	0xFE5
  3078                           fsr1h	equ	0xFE2
  3079                           fsr1l	equ	0xFE1
  3080                           indf2	equ	0xFDF
  3081                           postinc2	equ	0xFDE
  3082                           postdec2	equ	0xFDD
  3083                           plusw2	equ	0xFDB
  3084                           fsr2h	equ	0xFDA
  3085                           fsr2l	equ	0xFD9
  3086                           status	equ	0xFD8
  3087                           
  3088 ;; *************** function _TXFIFO_Fill *****************
  3089 ;; Defined at:
  3090 ;;		line 329 in file "../src/blaster.c"
  3091 ;; Parameters:    Size  Location     Type
  3092 ;;		None
  3093 ;; Auto vars:     Size  Location     Type
  3094 ;;		None
  3095 ;; Return value:  Size  Location     Type
  3096 ;;                  2   44[COMRAM] unsigned int 
  3097 ;; Registers used:
  3098 ;;		None
  3099 ;; Tracked objects:
  3100 ;;		On entry : 0/0
  3101 ;;		On exit  : 0/0
  3102 ;;		Unchanged: 0/0
  3103 ;; Data sizes:     COMRAM   BANK0   BANK1
  3104 ;;      Params:         2       0       0
  3105 ;;      Locals:         0       0       0
  3106 ;;      Temps:          0       0       0
  3107 ;;      Totals:         2       0       0
  3108 ;;Total ram usage:        2 bytes
  3109 ;; Hardware stack levels used:    1
  3110 ;; Hardware stack levels required when called:   10
  3111 ;; This function calls:
  3112 ;;		Nothing
  3113 ;; This function is called by:
  3114 ;;		_Main_Task_Blaster
  3115 ;; This function uses a non-reentrant model
  3116 ;;
  3117                           
  3118                           	psect	text10
  3119  0022E0                     __ptext10:
  3120                           	opt stack 0
  3121  0022E0                     _TXFIFO_Fill:
  3122                           	opt stack 19
  3123                           
  3124                           ;blaster.c: 331: return TXFIFO_ocpy;
  3125                           
  3126                           ;incstack = 0
  3127  0022E0  C039  F02D         	movff	_TXFIFO_ocpy,?_TXFIFO_Fill
  3128  0022E4  C03A  F02E         	movff	_TXFIFO_ocpy+1,?_TXFIFO_Fill+1
  3129  0022E8  0012               	return		;funcret
  3130  0022EA                     __end_of_TXFIFO_Fill:
  3131                           	opt stack 0
  3132                           tblptru	equ	0xFF8
  3133                           prodh	equ	0xFF4
  3134                           prodl	equ	0xFF3
  3135                           intcon	equ	0xFF2
  3136                           postinc0	equ	0xFEE
  3137                           wreg	equ	0xFE8
  3138                           indf1	equ	0xFE7
  3139                           postdec1	equ	0xFE5
  3140                           fsr1h	equ	0xFE2
  3141                           fsr1l	equ	0xFE1
  3142                           indf2	equ	0xFDF
  3143                           postinc2	equ	0xFDE
  3144                           postdec2	equ	0xFDD
  3145                           plusw2	equ	0xFDB
  3146                           fsr2h	equ	0xFDA
  3147                           fsr2l	equ	0xFD9
  3148                           status	equ	0xFD8
  3149                           
  3150 ;; *************** function _TIMER0_Reach_10ms *****************
  3151 ;; Defined at:
  3152 ;;		line 363 in file "../src/blaster.c"
  3153 ;; Parameters:    Size  Location     Type
  3154 ;;		None
  3155 ;; Auto vars:     Size  Location     Type
  3156 ;;  flag            1   44[COMRAM] unsigned char 
  3157 ;; Return value:  Size  Location     Type
  3158 ;;                  1    wreg      unsigned char 
  3159 ;; Registers used:
  3160 ;;		wreg, status,2
  3161 ;; Tracked objects:
  3162 ;;		On entry : 0/0
  3163 ;;		On exit  : 0/0
  3164 ;;		Unchanged: 0/0
  3165 ;; Data sizes:     COMRAM   BANK0   BANK1
  3166 ;;      Params:         0       0       0
  3167 ;;      Locals:         1       0       0
  3168 ;;      Temps:          0       0       0
  3169 ;;      Totals:         1       0       0
  3170 ;;Total ram usage:        1 bytes
  3171 ;; Hardware stack levels used:    1
  3172 ;; Hardware stack levels required when called:   10
  3173 ;; This function calls:
  3174 ;;		Nothing
  3175 ;; This function is called by:
  3176 ;;		_Main_Task_Blaster
  3177 ;; This function uses a non-reentrant model
  3178 ;;
  3179                           
  3180                           	psect	text11
  3181  0022B8                     __ptext11:
  3182                           	opt stack 0
  3183  0022B8                     _TIMER0_Reach_10ms:
  3184                           	opt stack 19
  3185                           
  3186                           ;blaster.c: 365: uint8_t flag;
  3187                           ;blaster.c: 366: flag = INTCONbits.TMR0IF;
  3188                           
  3189                           ;incstack = 0
  3190  0022B8  0E00               	movlw	0
  3191  0022BA  B4F2               	btfsc	intcon,2,c	;volatile
  3192  0022BC  0E01               	movlw	1
  3193  0022BE  6E2D               	movwf	TIMER0_Reach_10ms@flag,c
  3194                           
  3195                           ;blaster.c: 367: INTCONbits.TMR0IF = 0;
  3196  0022C0  94F2               	bcf	intcon,2,c	;volatile
  3197                           
  3198                           ;blaster.c: 368: return flag;
  3199  0022C2  502D               	movf	TIMER0_Reach_10ms@flag,w,c
  3200  0022C4  0012               	return	
  3201  0022C6                     __end_of_TIMER0_Reach_10ms:
  3202                           	opt stack 0
  3203                           tblptru	equ	0xFF8
  3204                           prodh	equ	0xFF4
  3205                           prodl	equ	0xFF3
  3206                           intcon	equ	0xFF2
  3207                           postinc0	equ	0xFEE
  3208                           wreg	equ	0xFE8
  3209                           indf1	equ	0xFE7
  3210                           postdec1	equ	0xFE5
  3211                           fsr1h	equ	0xFE2
  3212                           fsr1l	equ	0xFE1
  3213                           indf2	equ	0xFDF
  3214                           postinc2	equ	0xFDE
  3215                           postdec2	equ	0xFDD
  3216                           plusw2	equ	0xFDB
  3217                           fsr2h	equ	0xFDA
  3218                           fsr2l	equ	0xFD9
  3219                           status	equ	0xFD8
  3220                           
  3221 ;; *************** function _JTAG_SPI_Wait *****************
  3222 ;; Defined at:
  3223 ;;		line 70 in file "../src/jtag.c"
  3224 ;; Parameters:    Size  Location     Type
  3225 ;;		None
  3226 ;; Auto vars:     Size  Location     Type
  3227 ;;		None
  3228 ;; Return value:  Size  Location     Type
  3229 ;;                  1    wreg      void 
  3230 ;; Registers used:
  3231 ;;		None
  3232 ;; Tracked objects:
  3233 ;;		On entry : 0/0
  3234 ;;		On exit  : 0/0
  3235 ;;		Unchanged: 0/0
  3236 ;; Data sizes:     COMRAM   BANK0   BANK1
  3237 ;;      Params:         0       0       0
  3238 ;;      Locals:         0       0       0
  3239 ;;      Temps:          0       0       0
  3240 ;;      Totals:         0       0       0
  3241 ;;Total ram usage:        0 bytes
  3242 ;; Hardware stack levels used:    1
  3243 ;; Hardware stack levels required when called:   10
  3244 ;; This function calls:
  3245 ;;		Nothing
  3246 ;; This function is called by:
  3247 ;;		_Main_Task_Blaster
  3248 ;; This function uses a non-reentrant model
  3249 ;;
  3250                           
  3251                           	psect	text12
  3252  0022FA                     __ptext12:
  3253                           	opt stack 0
  3254  0022FA                     _JTAG_SPI_Wait:
  3255                           	opt stack 19
  3256  0022FA                     l99:
  3257  0022FA  B0C7               	btfsc	4039,0,c	;volatile
  3258  0022FC  0012               	return	
  3259  0022FE  D7FD               	goto	l99
  3260  002300                     __end_of_JTAG_SPI_Wait:
  3261                           	opt stack 0
  3262                           tblptru	equ	0xFF8
  3263                           prodh	equ	0xFF4
  3264                           prodl	equ	0xFF3
  3265                           intcon	equ	0xFF2
  3266                           postinc0	equ	0xFEE
  3267                           wreg	equ	0xFE8
  3268                           indf1	equ	0xFE7
  3269                           postdec1	equ	0xFE5
  3270                           fsr1h	equ	0xFE2
  3271                           fsr1l	equ	0xFE1
  3272                           indf2	equ	0xFDF
  3273                           postinc2	equ	0xFDE
  3274                           postdec2	equ	0xFDD
  3275                           plusw2	equ	0xFDB
  3276                           fsr2h	equ	0xFDA
  3277                           fsr2l	equ	0xFD9
  3278                           status	equ	0xFD8
  3279                           
  3280 ;; *************** function _JTAG_SPI_Put *****************
  3281 ;; Defined at:
  3282 ;;		line 78 in file "../src/jtag.c"
  3283 ;; Parameters:    Size  Location     Type
  3284 ;;  byte            1    wreg     unsigned char 
  3285 ;; Auto vars:     Size  Location     Type
  3286 ;;  byte            1   45[COMRAM] unsigned char 
  3287 ;; Return value:  Size  Location     Type
  3288 ;;                  1    wreg      void 
  3289 ;; Registers used:
  3290 ;;		wreg, status,2, status,0, tblptrl, tblptrh, tblptru, prodl, prodh, cstack
  3291 ;; Tracked objects:
  3292 ;;		On entry : 0/0
  3293 ;;		On exit  : 0/0
  3294 ;;		Unchanged: 0/0
  3295 ;; Data sizes:     COMRAM   BANK0   BANK1
  3296 ;;      Params:         0       0       0
  3297 ;;      Locals:         1       0       0
  3298 ;;      Temps:          0       0       0
  3299 ;;      Totals:         1       0       0
  3300 ;;Total ram usage:        1 bytes
  3301 ;; Hardware stack levels used:    1
  3302 ;; Hardware stack levels required when called:   11
  3303 ;; This function calls:
  3304 ;;		_bitrev
  3305 ;; This function is called by:
  3306 ;;		_Main_Task_Blaster
  3307 ;; This function uses a non-reentrant model
  3308 ;;
  3309                           
  3310                           	psect	text13
  3311  0022D4                     __ptext13:
  3312                           	opt stack 0
  3313  0022D4                     _JTAG_SPI_Put:
  3314                           	opt stack 18
  3315                           
  3316                           ;incstack = 0
  3317                           ;JTAG_SPI_Put@byte stored from wreg
  3318  0022D4  6E2E               	movwf	JTAG_SPI_Put@byte,c
  3319                           
  3320                           ;jtag.c: 80: SSPBUF = bitrev(byte);
  3321  0022D6  502E               	movf	JTAG_SPI_Put@byte,w,c
  3322  0022D8  EC3C  F011         	call	_bitrev
  3323  0022DC  6EC9               	movwf	4041,c	;volatile
  3324  0022DE  0012               	return		;funcret
  3325  0022E0                     __end_of_JTAG_SPI_Put:
  3326                           	opt stack 0
  3327                           tblptru	equ	0xFF8
  3328                           prodh	equ	0xFF4
  3329                           prodl	equ	0xFF3
  3330                           intcon	equ	0xFF2
  3331                           postinc0	equ	0xFEE
  3332                           wreg	equ	0xFE8
  3333                           indf1	equ	0xFE7
  3334                           postdec1	equ	0xFE5
  3335                           fsr1h	equ	0xFE2
  3336                           fsr1l	equ	0xFE1
  3337                           indf2	equ	0xFDF
  3338                           postinc2	equ	0xFDE
  3339                           postdec2	equ	0xFDD
  3340                           plusw2	equ	0xFDB
  3341                           fsr2h	equ	0xFDA
  3342                           fsr2l	equ	0xFD9
  3343                           status	equ	0xFD8
  3344                           
  3345 ;; *************** function _JTAG_SPI_Get *****************
  3346 ;; Defined at:
  3347 ;;		line 86 in file "../src/jtag.c"
  3348 ;; Parameters:    Size  Location     Type
  3349 ;;		None
  3350 ;; Auto vars:     Size  Location     Type
  3351 ;;		None
  3352 ;; Return value:  Size  Location     Type
  3353 ;;                  1    wreg      unsigned char 
  3354 ;; Registers used:
  3355 ;;		wreg, status,2, status,0, tblptrl, tblptrh, tblptru, prodl, prodh, cstack
  3356 ;; Tracked objects:
  3357 ;;		On entry : 0/0
  3358 ;;		On exit  : 0/0
  3359 ;;		Unchanged: 0/0
  3360 ;; Data sizes:     COMRAM   BANK0   BANK1
  3361 ;;      Params:         0       0       0
  3362 ;;      Locals:         0       0       0
  3363 ;;      Temps:          0       0       0
  3364 ;;      Totals:         0       0       0
  3365 ;;Total ram usage:        0 bytes
  3366 ;; Hardware stack levels used:    1
  3367 ;; Hardware stack levels required when called:   11
  3368 ;; This function calls:
  3369 ;;		_bitrev
  3370 ;; This function is called by:
  3371 ;;		_Main_Task_Blaster
  3372 ;; This function uses a non-reentrant model
  3373 ;;
  3374                           
  3375                           	psect	text14
  3376  0022EA                     __ptext14:
  3377                           	opt stack 0
  3378  0022EA                     _JTAG_SPI_Get:
  3379                           	opt stack 18
  3380                           
  3381                           ;jtag.c: 88: return bitrev(SSPBUF);
  3382                           
  3383                           ;incstack = 0
  3384  0022EA  50C9               	movf	4041,w,c	;volatile
  3385  0022EC  EC3C  F011         	call	_bitrev
  3386  0022F0  0012               	return	
  3387  0022F2                     __end_of_JTAG_SPI_Get:
  3388                           	opt stack 0
  3389                           tblptru	equ	0xFF8
  3390                           prodh	equ	0xFF4
  3391                           prodl	equ	0xFF3
  3392                           intcon	equ	0xFF2
  3393                           postinc0	equ	0xFEE
  3394                           wreg	equ	0xFE8
  3395                           indf1	equ	0xFE7
  3396                           postdec1	equ	0xFE5
  3397                           fsr1h	equ	0xFE2
  3398                           fsr1l	equ	0xFE1
  3399                           indf2	equ	0xFDF
  3400                           postinc2	equ	0xFDE
  3401                           postdec2	equ	0xFDD
  3402                           plusw2	equ	0xFDB
  3403                           fsr2h	equ	0xFDA
  3404                           fsr2l	equ	0xFD9
  3405                           status	equ	0xFD8
  3406                           
  3407 ;; *************** function _bitrev *****************
  3408 ;; Defined at:
  3409 ;;		line 130 in file "../src/jtag.c"
  3410 ;; Parameters:    Size  Location     Type
  3411 ;;  byte            1    wreg     unsigned char 
  3412 ;; Auto vars:     Size  Location     Type
  3413 ;;  byte            1   44[COMRAM] unsigned char 
  3414 ;; Return value:  Size  Location     Type
  3415 ;;                  1    wreg      unsigned char 
  3416 ;; Registers used:
  3417 ;;		wreg, status,2, status,0, tblptrl, tblptrh, tblptru, prodl, prodh
  3418 ;; Tracked objects:
  3419 ;;		On entry : 0/0
  3420 ;;		On exit  : 0/0
  3421 ;;		Unchanged: 0/0
  3422 ;; Data sizes:     COMRAM   BANK0   BANK1
  3423 ;;      Params:         0       0       0
  3424 ;;      Locals:         1       0       0
  3425 ;;      Temps:          0       0       0
  3426 ;;      Totals:         1       0       0
  3427 ;;Total ram usage:        1 bytes
  3428 ;; Hardware stack levels used:    1
  3429 ;; Hardware stack levels required when called:   10
  3430 ;; This function calls:
  3431 ;;		Nothing
  3432 ;; This function is called by:
  3433 ;;		_JTAG_SPI_Put
  3434 ;;		_JTAG_SPI_Get
  3435 ;; This function uses a non-reentrant model
  3436 ;;
  3437                           
  3438                           	psect	text15
  3439  002278                     __ptext15:
  3440                           	opt stack 0
  3441  002278                     _bitrev:
  3442                           	opt stack 18
  3443                           
  3444                           ;incstack = 0
  3445                           ;bitrev@byte stored from wreg
  3446  002278  6E2D               	movwf	bitrev@byte,c
  3447                           
  3448                           ;jtag.c: 132: return REV[byte];
  3449  00227A  502D               	movf	bitrev@byte,w,c
  3450  00227C  0D01               	mullw	1
  3451  00227E  0E87               	movlw	low _REV
  3452  002280  24F3               	addwf	prodl,w,c
  3453  002282  6EF6               	movwf	tblptrl,c
  3454  002284  0E3E               	movlw	high _REV
  3455  002286  20F4               	addwfc	prodh,w,c
  3456  002288  6EF7               	movwf	tblptrh,c
  3457  00228A                     	if	0	;There are less than 3 active tblptr bytes
  3458  00228A                     	endif
  3459  00228A  0008               	tblrd		*
  3460  00228C  50F5               	movf	tablat,w,c
  3461  00228E  0012               	return	
  3462  002290                     __end_of_bitrev:
  3463                           	opt stack 0
  3464                           tblptru	equ	0xFF8
  3465                           tblptrh	equ	0xFF7
  3466                           tblptrl	equ	0xFF6
  3467                           tablat	equ	0xFF5
  3468                           prodh	equ	0xFF4
  3469                           prodl	equ	0xFF3
  3470                           intcon	equ	0xFF2
  3471                           postinc0	equ	0xFEE
  3472                           wreg	equ	0xFE8
  3473                           indf1	equ	0xFE7
  3474                           postdec1	equ	0xFE5
  3475                           fsr1h	equ	0xFE2
  3476                           fsr1l	equ	0xFE1
  3477                           indf2	equ	0xFDF
  3478                           postinc2	equ	0xFDE
  3479                           postdec2	equ	0xFDD
  3480                           plusw2	equ	0xFDB
  3481                           fsr2h	equ	0xFDA
  3482                           fsr2l	equ	0xFD9
  3483                           status	equ	0xFD8
  3484                           
  3485 ;; *************** function _JTAG_Mode_SPI *****************
  3486 ;; Defined at:
  3487 ;;		line 52 in file "../src/jtag.c"
  3488 ;; Parameters:    Size  Location     Type
  3489 ;;		None
  3490 ;; Auto vars:     Size  Location     Type
  3491 ;;		None
  3492 ;; Return value:  Size  Location     Type
  3493 ;;                  1    wreg      void 
  3494 ;; Registers used:
  3495 ;;		None
  3496 ;; Tracked objects:
  3497 ;;		On entry : 0/0
  3498 ;;		On exit  : 0/0
  3499 ;;		Unchanged: 0/0
  3500 ;; Data sizes:     COMRAM   BANK0   BANK1
  3501 ;;      Params:         0       0       0
  3502 ;;      Locals:         0       0       0
  3503 ;;      Temps:          0       0       0
  3504 ;;      Totals:         0       0       0
  3505 ;;Total ram usage:        0 bytes
  3506 ;; Hardware stack levels used:    1
  3507 ;; Hardware stack levels required when called:   10
  3508 ;; This function calls:
  3509 ;;		Nothing
  3510 ;; This function is called by:
  3511 ;;		_Main_Task_Blaster
  3512 ;; This function uses a non-reentrant model
  3513 ;;
  3514                           
  3515                           	psect	text16
  3516  0022F2                     __ptext16:
  3517                           	opt stack 0
  3518  0022F2                     _JTAG_Mode_SPI:
  3519                           	opt stack 19
  3520                           
  3521                           ;jtag.c: 54: TRISBbits.RB6 = 1;
  3522                           
  3523                           ;incstack = 0
  3524  0022F2  8C93               	bsf	3987,6,c	;volatile
  3525                           
  3526                           ;jtag.c: 55: SSPCON1bits.SSPEN = 1;
  3527  0022F4  8AC6               	bsf	4038,5,c	;volatile
  3528                           
  3529                           ;jtag.c: 56: TRISBbits.RB6 = 0;
  3530  0022F6  9C93               	bcf	3987,6,c	;volatile
  3531  0022F8  0012               	return		;funcret
  3532  0022FA                     __end_of_JTAG_Mode_SPI:
  3533                           	opt stack 0
  3534                           tblptru	equ	0xFF8
  3535                           tblptrh	equ	0xFF7
  3536                           tblptrl	equ	0xFF6
  3537                           tablat	equ	0xFF5
  3538                           prodh	equ	0xFF4
  3539                           prodl	equ	0xFF3
  3540                           intcon	equ	0xFF2
  3541                           postinc0	equ	0xFEE
  3542                           wreg	equ	0xFE8
  3543                           indf1	equ	0xFE7
  3544                           postdec1	equ	0xFE5
  3545                           fsr1h	equ	0xFE2
  3546                           fsr1l	equ	0xFE1
  3547                           indf2	equ	0xFDF
  3548                           postinc2	equ	0xFDE
  3549                           postdec2	equ	0xFDD
  3550                           plusw2	equ	0xFDB
  3551                           fsr2h	equ	0xFDA
  3552                           fsr2l	equ	0xFD9
  3553                           status	equ	0xFD8
  3554                           
  3555 ;; *************** function _JTAG_Mode_PORT *****************
  3556 ;; Defined at:
  3557 ;;		line 62 in file "../src/jtag.c"
  3558 ;; Parameters:    Size  Location     Type
  3559 ;;		None
  3560 ;; Auto vars:     Size  Location     Type
  3561 ;;		None
  3562 ;; Return value:  Size  Location     Type
  3563 ;;                  1    wreg      void 
  3564 ;; Registers used:
  3565 ;;		None
  3566 ;; Tracked objects:
  3567 ;;		On entry : 0/0
  3568 ;;		On exit  : 0/0
  3569 ;;		Unchanged: 0/0
  3570 ;; Data sizes:     COMRAM   BANK0   BANK1
  3571 ;;      Params:         0       0       0
  3572 ;;      Locals:         0       0       0
  3573 ;;      Temps:          0       0       0
  3574 ;;      Totals:         0       0       0
  3575 ;;Total ram usage:        0 bytes
  3576 ;; Hardware stack levels used:    1
  3577 ;; Hardware stack levels required when called:   10
  3578 ;; This function calls:
  3579 ;;		Nothing
  3580 ;; This function is called by:
  3581 ;;		_Main_Task_Blaster
  3582 ;; This function uses a non-reentrant model
  3583 ;;
  3584                           
  3585                           	psect	text17
  3586  002300                     __ptext17:
  3587                           	opt stack 0
  3588  002300                     _JTAG_Mode_PORT:
  3589                           	opt stack 19
  3590                           
  3591                           ;jtag.c: 64: SSPCON1bits.SSPEN = 0;
  3592                           
  3593                           ;incstack = 0
  3594  002300  9AC6               	bcf	4038,5,c	;volatile
  3595  002302  0012               	return		;funcret
  3596  002304                     __end_of_JTAG_Mode_PORT:
  3597                           	opt stack 0
  3598                           tblptru	equ	0xFF8
  3599                           tblptrh	equ	0xFF7
  3600                           tblptrl	equ	0xFF6
  3601                           tablat	equ	0xFF5
  3602                           prodh	equ	0xFF4
  3603                           prodl	equ	0xFF3
  3604                           intcon	equ	0xFF2
  3605                           postinc0	equ	0xFEE
  3606                           wreg	equ	0xFE8
  3607                           indf1	equ	0xFE7
  3608                           postdec1	equ	0xFE5
  3609                           fsr1h	equ	0xFE2
  3610                           fsr1l	equ	0xFE1
  3611                           indf2	equ	0xFDF
  3612                           postinc2	equ	0xFDE
  3613                           postdec2	equ	0xFDD
  3614                           plusw2	equ	0xFDB
  3615                           fsr2h	equ	0xFDA
  3616                           fsr2l	equ	0xFD9
  3617                           status	equ	0xFD8
  3618                           
  3619 ;; *************** function _Blaster_Init *****************
  3620 ;; Defined at:
  3621 ;;		line 151 in file "../src/blaster.c"
  3622 ;; Parameters:    Size  Location     Type
  3623 ;;		None
  3624 ;; Auto vars:     Size  Location     Type
  3625 ;;		None
  3626 ;; Return value:  Size  Location     Type
  3627 ;;                  1    wreg      void 
  3628 ;; Registers used:
  3629 ;;		wreg, status,2, status,0, tblptrl, tblptrh, tblptru, cstack
  3630 ;; Tracked objects:
  3631 ;;		On entry : 0/0
  3632 ;;		On exit  : 0/0
  3633 ;;		Unchanged: 0/0
  3634 ;; Data sizes:     COMRAM   BANK0   BANK1
  3635 ;;      Params:         0       0       0
  3636 ;;      Locals:         0       0       0
  3637 ;;      Temps:          0       0       0
  3638 ;;      Totals:         0       0       0
  3639 ;;Total ram usage:        0 bytes
  3640 ;; Hardware stack levels used:    1
  3641 ;; Hardware stack levels required when called:   12
  3642 ;; This function calls:
  3643 ;;		_EEPROM_Checksum
  3644 ;;		_JTAG_Init
  3645 ;;		_TIMER0_Start_10ms
  3646 ;; This function is called by:
  3647 ;;		_main
  3648 ;; This function uses a non-reentrant model
  3649 ;;
  3650                           
  3651                           	psect	text18
  3652  0022C6                     __ptext18:
  3653                           	opt stack 0
  3654  0022C6                     _Blaster_Init:
  3655                           	opt stack 18
  3656                           
  3657                           ;blaster.c: 154: EEPROM_Checksum();
  3658                           
  3659                           ;incstack = 0
  3660  0022C6  ECA1  F00D         	call	_EEPROM_Checksum	;wreg free
  3661                           
  3662                           ;blaster.c: 157: JTAG_Init();
  3663  0022CA  ECEA  F010         	call	_JTAG_Init	;wreg free
  3664                           
  3665                           ;blaster.c: 166: TIMER0_Start_10ms();
  3666  0022CE  EC48  F011         	call	_TIMER0_Start_10ms	;wreg free
  3667  0022D2  0012               	return		;funcret
  3668  0022D4                     __end_of_Blaster_Init:
  3669                           	opt stack 0
  3670                           tblptru	equ	0xFF8
  3671                           tblptrh	equ	0xFF7
  3672                           tblptrl	equ	0xFF6
  3673                           tablat	equ	0xFF5
  3674                           prodh	equ	0xFF4
  3675                           prodl	equ	0xFF3
  3676                           intcon	equ	0xFF2
  3677                           postinc0	equ	0xFEE
  3678                           wreg	equ	0xFE8
  3679                           indf1	equ	0xFE7
  3680                           postdec1	equ	0xFE5
  3681                           fsr1h	equ	0xFE2
  3682                           fsr1l	equ	0xFE1
  3683                           indf2	equ	0xFDF
  3684                           postinc2	equ	0xFDE
  3685                           postdec2	equ	0xFDD
  3686                           plusw2	equ	0xFDB
  3687                           fsr2h	equ	0xFDA
  3688                           fsr2l	equ	0xFD9
  3689                           status	equ	0xFD8
  3690                           
  3691 ;; *************** function _TIMER0_Start_10ms *****************
  3692 ;; Defined at:
  3693 ;;		line 345 in file "../src/blaster.c"
  3694 ;; Parameters:    Size  Location     Type
  3695 ;;		None
  3696 ;; Auto vars:     Size  Location     Type
  3697 ;;		None
  3698 ;; Return value:  Size  Location     Type
  3699 ;;                  1    wreg      void 
  3700 ;; Registers used:
  3701 ;;		wreg, status,2
  3702 ;; Tracked objects:
  3703 ;;		On entry : 0/0
  3704 ;;		On exit  : 0/0
  3705 ;;		Unchanged: 0/0
  3706 ;; Data sizes:     COMRAM   BANK0   BANK1
  3707 ;;      Params:         0       0       0
  3708 ;;      Locals:         0       0       0
  3709 ;;      Temps:          0       0       0
  3710 ;;      Totals:         0       0       0
  3711 ;;Total ram usage:        0 bytes
  3712 ;; Hardware stack levels used:    1
  3713 ;; Hardware stack levels required when called:   10
  3714 ;; This function calls:
  3715 ;;		Nothing
  3716 ;; This function is called by:
  3717 ;;		_Blaster_Init
  3718 ;;		_Main_Task_Blaster
  3719 ;; This function uses a non-reentrant model
  3720 ;;
  3721                           
  3722                           	psect	text19
  3723  002290                     __ptext19:
  3724                           	opt stack 0
  3725  002290                     _TIMER0_Start_10ms:
  3726                           	opt stack 19
  3727                           
  3728                           ;blaster.c: 348: INTCONbits.TMR0IE=0;
  3729                           
  3730                           ;incstack = 0
  3731  002290  9AF2               	bcf	intcon,5,c	;volatile
  3732                           
  3733                           ;blaster.c: 350: T0CON=0x00;
  3734  002292  0E00               	movlw	0
  3735  002294  6ED5               	movwf	4053,c	;volatile
  3736                           
  3737                           ;blaster.c: 352: INTCONbits.TMR0IF = 0;
  3738  002296  94F2               	bcf	intcon,2,c	;volatile
  3739                           
  3740                           ;blaster.c: 354: TMR0H = (65536 - 60000) >> 8;
  3741  002298  0E15               	movlw	21
  3742  00229A  6ED7               	movwf	4055,c	;volatile
  3743                           
  3744                           ;blaster.c: 355: TMR0L = (65536 - 60000) &0x00FF;
  3745  00229C  0EA0               	movlw	160
  3746  00229E  6ED6               	movwf	4054,c	;volatile
  3747                           
  3748                           ;blaster.c: 357: T0CON=0x80;
  3749  0022A0  0E80               	movlw	128
  3750  0022A2  6ED5               	movwf	4053,c	;volatile
  3751  0022A4  0012               	return		;funcret
  3752  0022A6                     __end_of_TIMER0_Start_10ms:
  3753                           	opt stack 0
  3754                           tblptru	equ	0xFF8
  3755                           tblptrh	equ	0xFF7
  3756                           tblptrl	equ	0xFF6
  3757                           tablat	equ	0xFF5
  3758                           prodh	equ	0xFF4
  3759                           prodl	equ	0xFF3
  3760                           intcon	equ	0xFF2
  3761                           postinc0	equ	0xFEE
  3762                           wreg	equ	0xFE8
  3763                           indf1	equ	0xFE7
  3764                           postdec1	equ	0xFE5
  3765                           fsr1h	equ	0xFE2
  3766                           fsr1l	equ	0xFE1
  3767                           indf2	equ	0xFDF
  3768                           postinc2	equ	0xFDE
  3769                           postdec2	equ	0xFDD
  3770                           plusw2	equ	0xFDB
  3771                           fsr2h	equ	0xFDA
  3772                           fsr2l	equ	0xFD9
  3773                           status	equ	0xFD8
  3774                           
  3775 ;; *************** function _JTAG_Init *****************
  3776 ;; Defined at:
  3777 ;;		line 17 in file "../src/jtag.c"
  3778 ;; Parameters:    Size  Location     Type
  3779 ;;		None
  3780 ;; Auto vars:     Size  Location     Type
  3781 ;;		None
  3782 ;; Return value:  Size  Location     Type
  3783 ;;                  1    wreg      void 
  3784 ;; Registers used:
  3785 ;;		wreg, status,2
  3786 ;; Tracked objects:
  3787 ;;		On entry : 0/0
  3788 ;;		On exit  : 0/0
  3789 ;;		Unchanged: 0/0
  3790 ;; Data sizes:     COMRAM   BANK0   BANK1
  3791 ;;      Params:         0       0       0
  3792 ;;      Locals:         0       0       0
  3793 ;;      Temps:          0       0       0
  3794 ;;      Totals:         0       0       0
  3795 ;;Total ram usage:        0 bytes
  3796 ;; Hardware stack levels used:    1
  3797 ;; Hardware stack levels required when called:   10
  3798 ;; This function calls:
  3799 ;;		Nothing
  3800 ;; This function is called by:
  3801 ;;		_Blaster_Init
  3802 ;; This function uses a non-reentrant model
  3803 ;;
  3804                           
  3805                           	psect	text20
  3806  0021D4                     __ptext20:
  3807                           	opt stack 0
  3808  0021D4                     _JTAG_Init:
  3809                           	opt stack 19
  3810                           
  3811                           ;jtag.c: 22: ANSEL = 0x00;
  3812                           
  3813                           ;incstack = 0
  3814  0021D4  0E00               	movlw	0
  3815  0021D6  6E7E               	movwf	3966,c	;volatile
  3816                           
  3817                           ;jtag.c: 23: ANSELH = 0x00;
  3818  0021D8  0E00               	movlw	0
  3819  0021DA  6E7F               	movwf	3967,c	;volatile
  3820                           
  3821                           ;jtag.c: 27: SLRCON = 0x00;
  3822  0021DC  0E00               	movlw	0
  3823  0021DE  6E76               	movwf	3958,c	;volatile
  3824                           
  3825                           ;jtag.c: 31: LATCbits.LATC2 = 0;
  3826  0021E0  948B               	bcf	3979,2,c	;volatile
  3827                           
  3828                           ;jtag.c: 32: LATBbits.LATB6 = 0;
  3829  0021E2  9C8A               	bcf	3978,6,c	;volatile
  3830                           
  3831                           ;jtag.c: 33: LATCbits.LATC6 = 1;
  3832  0021E4  8C8B               	bsf	3979,6,c	;volatile
  3833                           
  3834                           ;jtag.c: 34: LATCbits.LATC7 = 0;
  3835  0021E6  9E8B               	bcf	3979,7,c	;volatile
  3836                           
  3837                           ;jtag.c: 38: TRISB = 0x30;
  3838  0021E8  0E30               	movlw	48
  3839  0021EA  6E93               	movwf	3987,c	;volatile
  3840                           
  3841                           ;jtag.c: 39: TRISC = 0x1b;
  3842  0021EC  0E1B               	movlw	27
  3843  0021EE  6E94               	movwf	3988,c	;volatile
  3844                           
  3845                           ;jtag.c: 45: SSPSTAT = 0x40;
  3846  0021F0  0E40               	movlw	64
  3847  0021F2  6EC7               	movwf	4039,c	;volatile
  3848                           
  3849                           ;jtag.c: 46: SSPCON1 = 0x00;
  3850  0021F4  0E00               	movlw	0
  3851  0021F6  6EC6               	movwf	4038,c	;volatile
  3852  0021F8  0012               	return		;funcret
  3853  0021FA                     __end_of_JTAG_Init:
  3854                           	opt stack 0
  3855                           tblptru	equ	0xFF8
  3856                           tblptrh	equ	0xFF7
  3857                           tblptrl	equ	0xFF6
  3858                           tablat	equ	0xFF5
  3859                           prodh	equ	0xFF4
  3860                           prodl	equ	0xFF3
  3861                           intcon	equ	0xFF2
  3862                           postinc0	equ	0xFEE
  3863                           wreg	equ	0xFE8
  3864                           indf1	equ	0xFE7
  3865                           postdec1	equ	0xFE5
  3866                           fsr1h	equ	0xFE2
  3867                           fsr1l	equ	0xFE1
  3868                           indf2	equ	0xFDF
  3869                           postinc2	equ	0xFDE
  3870                           postdec2	equ	0xFDD
  3871                           plusw2	equ	0xFDB
  3872                           fsr2h	equ	0xFDA
  3873                           fsr2l	equ	0xFD9
  3874                           status	equ	0xFD8
  3875                           
  3876 ;; *************** function _EEPROM_Checksum *****************
  3877 ;; Defined at:
  3878 ;;		line 278 in file "../src/blaster.c"
  3879 ;; Parameters:    Size  Location     Type
  3880 ;;		None
  3881 ;; Auto vars:     Size  Location     Type
  3882 ;;  eeprom_data     2    7[BANK0 ] unsigned int 
  3883 ;;  i               1    9[BANK0 ] unsigned char 
  3884 ;; Return value:  Size  Location     Type
  3885 ;;                  1    wreg      void 
  3886 ;; Registers used:
  3887 ;;		wreg, status,2, status,0, tblptrl, tblptrh, tblptru, cstack
  3888 ;; Tracked objects:
  3889 ;;		On entry : 0/0
  3890 ;;		On exit  : 0/0
  3891 ;;		Unchanged: 0/0
  3892 ;; Data sizes:     COMRAM   BANK0   BANK1
  3893 ;;      Params:         0       0       0
  3894 ;;      Locals:         0       3       0
  3895 ;;      Temps:          0       5       0
  3896 ;;      Totals:         0       8       0
  3897 ;;Total ram usage:        8 bytes
  3898 ;; Hardware stack levels used:    1
  3899 ;; Hardware stack levels required when called:   11
  3900 ;; This function calls:
  3901 ;;		_EEPROM_Read
  3902 ;; This function is called by:
  3903 ;;		_Blaster_Init
  3904 ;; This function uses a non-reentrant model
  3905 ;;
  3906                           
  3907                           	psect	text21
  3908  001B42                     __ptext21:
  3909                           	opt stack 0
  3910  001B42                     _EEPROM_Checksum:
  3911                           	opt stack 18
  3912                           
  3913                           ;blaster.c: 280: uint8_t i;
  3914                           ;blaster.c: 281: uint16_t eeprom_data;
  3915                           ;blaster.c: 282: eeprom_checksum = 0xaaaa;
  3916                           
  3917                           ;incstack = 0
  3918  001B42  0EAA               	movlw	170
  3919  001B44  0100               	movlb	0	; () banked
  3920  001B46  6F9B               	movwf	(_eeprom_checksum+1)& (0+255),b
  3921  001B48  0EAA               	movlw	170
  3922  001B4A  6F9A               	movwf	_eeprom_checksum& (0+255),b
  3923                           
  3924                           ;blaster.c: 283: for (i = 0; i < 126; i = i + 2)
  3925  001B4C  0E00               	movlw	0
  3926  001B4E  0100               	movlb	0	; () banked
  3927  001B50  6F92               	movwf	EEPROM_Checksum@i& (0+255),b
  3928                           
  3929                           ; BSR set to: 0
  3930  001B52  0E7D               	movlw	125
  3931  001B54  0100               	movlb	0	; () banked
  3932  001B56  6592               	cpfsgt	EEPROM_Checksum@i& (0+255),b
  3933  001B58  D001               	goto	l3596
  3934  001B5A  0012               	return	
  3935  001B5C                     l3596:
  3936                           
  3937                           ; BSR set to: 0
  3938                           ;blaster.c: 284: {
  3939                           ;blaster.c: 285: eeprom_data = (uint16_t)(EEPROM_Read(i+1));
  3940  001B5C  0100               	movlb	0	; () banked
  3941  001B5E  2992               	incf	EEPROM_Checksum@i& (0+255),w,b
  3942  001B60  EC95  F002         	call	_EEPROM_Read
  3943  001B64  0100               	movlb	0	; () banked
  3944  001B66  6F8B               	movwf	??_EEPROM_Checksum& (0+255),b
  3945  001B68  0100               	movlb	0	; () banked
  3946  001B6A  518B               	movf	??_EEPROM_Checksum& (0+255),w,b
  3947  001B6C  0100               	movlb	0	; () banked
  3948  001B6E  6F90               	movwf	EEPROM_Checksum@eeprom_data& (0+255),b
  3949  001B70  6B91               	clrf	(EEPROM_Checksum@eeprom_data+1)& (0+255),b
  3950                           
  3951                           ; BSR set to: 0
  3952                           ;blaster.c: 286: eeprom_data = eeprom_data << 8;
  3953  001B72  0100               	movlb	0	; () banked
  3954  001B74  5190               	movf	EEPROM_Checksum@eeprom_data& (0+255),w,b
  3955  001B76  0100               	movlb	0	; () banked
  3956  001B78  6F91               	movwf	(EEPROM_Checksum@eeprom_data+1)& (0+255),b
  3957  001B7A  6B90               	clrf	EEPROM_Checksum@eeprom_data& (0+255),b
  3958                           
  3959                           ; BSR set to: 0
  3960                           ;blaster.c: 287: eeprom_data = eeprom_data | (uint16_t)(EEPROM_Read(i));
  3961  001B7C  0100               	movlb	0	; () banked
  3962  001B7E  5192               	movf	EEPROM_Checksum@i& (0+255),w,b
  3963  001B80  EC95  F002         	call	_EEPROM_Read
  3964  001B84  0100               	movlb	0	; () banked
  3965  001B86  6F8B               	movwf	??_EEPROM_Checksum& (0+255),b
  3966  001B88  0100               	movlb	0	; () banked
  3967  001B8A  5190               	movf	EEPROM_Checksum@eeprom_data& (0+255),w,b
  3968  001B8C  0100               	movlb	0	; () banked
  3969  001B8E  118B               	iorwf	??_EEPROM_Checksum& (0+255),w,b
  3970  001B90  0100               	movlb	0	; () banked
  3971  001B92  6F90               	movwf	EEPROM_Checksum@eeprom_data& (0+255),b
  3972  001B94  0100               	movlb	0	; () banked
  3973  001B96  5191               	movf	(EEPROM_Checksum@eeprom_data+1)& (0+255),w,b
  3974  001B98  0100               	movlb	0	; () banked
  3975  001B9A  6F91               	movwf	(EEPROM_Checksum@eeprom_data+1)& (0+255),b
  3976                           
  3977                           ; BSR set to: 0
  3978                           ;blaster.c: 288: eeprom_checksum = eeprom_checksum ^ eeprom_data;
  3979  001B9C  0100               	movlb	0	; () banked
  3980  001B9E  5190               	movf	EEPROM_Checksum@eeprom_data& (0+255),w,b
  3981  001BA0  0100               	movlb	0	; () banked
  3982  001BA2  199A               	xorwf	_eeprom_checksum& (0+255),w,b
  3983  001BA4  0100               	movlb	0	; () banked
  3984  001BA6  6F9A               	movwf	_eeprom_checksum& (0+255),b
  3985  001BA8  0100               	movlb	0	; () banked
  3986  001BAA  5191               	movf	(EEPROM_Checksum@eeprom_data+1)& (0+255),w,b
  3987  001BAC  0100               	movlb	0	; () banked
  3988  001BAE  199B               	xorwf	(_eeprom_checksum+1)& (0+255),w,b
  3989  001BB0  0100               	movlb	0	; () banked
  3990  001BB2  6F9B               	movwf	(_eeprom_checksum+1)& (0+255),b
  3991                           
  3992                           ; BSR set to: 0
  3993                           ;blaster.c: 290: eeprom_checksum = (eeprom_checksum << 1) | (eeprom_checksum >> 15);
  3994  001BB4  C09A  F08B         	movff	_eeprom_checksum,??_EEPROM_Checksum
  3995  001BB8  C09B  F08C         	movff	_eeprom_checksum+1,??_EEPROM_Checksum+1
  3996  001BBC  0E0F               	movlw	15
  3997  001BBE  0100               	movlb	0	; () banked
  3998  001BC0  6F8D               	movwf	(??_EEPROM_Checksum+2)& (0+255),b
  3999  001BC2                     u2705:
  4000  001BC2  0100               	movlb	0	; () banked
  4001  001BC4  90D8               	bcf	status,0,c
  4002  001BC6  338C               	rrcf	(??_EEPROM_Checksum+1)& (0+255),f,b
  4003  001BC8  338B               	rrcf	??_EEPROM_Checksum& (0+255),f,b
  4004  001BCA  0100               	movlb	0	; () banked
  4005  001BCC  2F8D               	decfsz	(??_EEPROM_Checksum+2)& (0+255),f,b
  4006  001BCE  D7F9               	goto	u2705
  4007  001BD0  C09A  F08E         	movff	_eeprom_checksum,??_EEPROM_Checksum+3
  4008  001BD4  C09B  F08F         	movff	_eeprom_checksum+1,??_EEPROM_Checksum+4
  4009  001BD8  90D8               	bcf	status,0,c
  4010  001BDA  0100               	movlb	0	; () banked
  4011  001BDC  378E               	rlcf	(??_EEPROM_Checksum+3)& (0+255),f,b
  4012  001BDE  378F               	rlcf	(??_EEPROM_Checksum+4)& (0+255),f,b
  4013  001BE0  0100               	movlb	0	; () banked
  4014  001BE2  518B               	movf	??_EEPROM_Checksum& (0+255),w,b
  4015  001BE4  0100               	movlb	0	; () banked
  4016  001BE6  118E               	iorwf	(??_EEPROM_Checksum+3)& (0+255),w,b
  4017  001BE8  0100               	movlb	0	; () banked
  4018  001BEA  6F9A               	movwf	_eeprom_checksum& (0+255),b
  4019  001BEC  0100               	movlb	0	; () banked
  4020  001BEE  518C               	movf	(??_EEPROM_Checksum+1)& (0+255),w,b
  4021  001BF0  0100               	movlb	0	; () banked
  4022  001BF2  118F               	iorwf	(??_EEPROM_Checksum+4)& (0+255),w,b
  4023  001BF4  0100               	movlb	0	; () banked
  4024  001BF6  6F9B               	movwf	(_eeprom_checksum+1)& (0+255),b
  4025                           
  4026                           ; BSR set to: 0
  4027  001BF8  0100               	movlb	0	; () banked
  4028  001BFA  5192               	movf	EEPROM_Checksum@i& (0+255),w,b
  4029  001BFC  0F02               	addlw	2
  4030  001BFE  D7A7               	goto	L5
  4031  001C00                     __end_of_EEPROM_Checksum:
  4032                           	opt stack 0
  4033                           tblptru	equ	0xFF8
  4034                           tblptrh	equ	0xFF7
  4035                           tblptrl	equ	0xFF6
  4036                           tablat	equ	0xFF5
  4037                           prodh	equ	0xFF4
  4038                           prodl	equ	0xFF3
  4039                           intcon	equ	0xFF2
  4040                           postinc0	equ	0xFEE
  4041                           wreg	equ	0xFE8
  4042                           indf1	equ	0xFE7
  4043                           postdec1	equ	0xFE5
  4044                           fsr1h	equ	0xFE2
  4045                           fsr1l	equ	0xFE1
  4046                           indf2	equ	0xFDF
  4047                           postinc2	equ	0xFDE
  4048                           postdec2	equ	0xFDD
  4049                           plusw2	equ	0xFDB
  4050                           fsr2h	equ	0xFDA
  4051                           fsr2l	equ	0xFD9
  4052                           status	equ	0xFD8
  4053                           
  4054 ;; *************** function _EEPROM_Read *****************
  4055 ;; Defined at:
  4056 ;;		line 228 in file "../src/blaster.c"
  4057 ;; Parameters:    Size  Location     Type
  4058 ;;  addr            1    wreg     unsigned char 
  4059 ;; Auto vars:     Size  Location     Type
  4060 ;;  addr            1    1[BANK0 ] unsigned char 
  4061 ;;  data            1    0[BANK0 ] unsigned char 
  4062 ;; Return value:  Size  Location     Type
  4063 ;;                  1    wreg      unsigned char 
  4064 ;; Registers used:
  4065 ;;		wreg, status,2, status,0, tblptrl, tblptrh, tblptru
  4066 ;; Tracked objects:
  4067 ;;		On entry : 0/0
  4068 ;;		On exit  : 0/0
  4069 ;;		Unchanged: 0/0
  4070 ;; Data sizes:     COMRAM   BANK0   BANK1
  4071 ;;      Params:         0       0       0
  4072 ;;      Locals:         0       2       0
  4073 ;;      Temps:          6       0       0
  4074 ;;      Totals:         6       2       0
  4075 ;;Total ram usage:        8 bytes
  4076 ;; Hardware stack levels used:    1
  4077 ;; Hardware stack levels required when called:   10
  4078 ;; This function calls:
  4079 ;;		Nothing
  4080 ;; This function is called by:
  4081 ;;		_EEPROM_Checksum
  4082 ;; This function uses a non-reentrant model
  4083 ;;
  4084                           
  4085                           	psect	text22
  4086  00052A                     __ptext22:
  4087                           	opt stack 0
  4088  00052A                     _EEPROM_Read:
  4089                           	opt stack 18
  4090                           
  4091                           ; BSR set to: 0
  4092                           ;incstack = 0
  4093                           ;EEPROM_Read@addr stored from wreg
  4094  00052A  0100               	movlb	0	; () banked
  4095  00052C  6F8A               	movwf	EEPROM_Read@addr& (0+255),b
  4096                           
  4097                           ;blaster.c: 230: uint8_t data = 0;
  4098  00052E  0E00               	movlw	0
  4099  000530  0100               	movlb	0	; () banked
  4100  000532  6F89               	movwf	EEPROM_Read@data& (0+255),b
  4101                           
  4102                           ;blaster.c: 232: switch(addr)
  4103  000534  D069               	goto	l3464
  4104  000536                     l3420:
  4105                           
  4106                           ; BSR set to: 0
  4107  000536  0E00               	movlw	0
  4108  000538  D045               	goto	L16
  4109  00053A                     l3422:
  4110                           
  4111                           ; BSR set to: 0
  4112  00053A  0ED1               	movlw	low (_device_dsc+8)
  4113  00053C  6E2D               	movwf	??_EEPROM_Read& (0+255),c
  4114  00053E  0E3F               	movlw	high (_device_dsc+8)
  4115  000540                     L28:
  4116  000540  6E2E               	movwf	(??_EEPROM_Read+1)& (0+255),c
  4117  000542  D02E               	goto	L22
  4118  000544                     l3424:
  4119                           
  4120                           ; BSR set to: 0
  4121  000544  0ED1               	movlw	low (_device_dsc+8)
  4122  000546  6E2D               	movwf	??_EEPROM_Read& (0+255),c
  4123  000548  0E3F               	movlw	high (_device_dsc+8)
  4124  00054A  D025               	goto	L64
  4125  00054C                     l3426:
  4126                           
  4127                           ; BSR set to: 0
  4128  00054C  0ED3               	movlw	low (_device_dsc+10)
  4129  00054E  6E2D               	movwf	??_EEPROM_Read& (0+255),c
  4130  000550  0E3F               	movlw	high (_device_dsc+10)
  4131  000552  D7F6               	goto	L28
  4132  000554                     l3428:
  4133                           
  4134                           ; BSR set to: 0
  4135  000554  0ED3               	movlw	low (_device_dsc+10)
  4136  000556  6E2D               	movwf	??_EEPROM_Read& (0+255),c
  4137  000558  0E3F               	movlw	high (_device_dsc+10)
  4138  00055A  D01D               	goto	L64
  4139  00055C                     l3430:
  4140                           
  4141                           ; BSR set to: 0
  4142  00055C  0ED5               	movlw	low (_device_dsc+12)
  4143  00055E  6E2D               	movwf	??_EEPROM_Read& (0+255),c
  4144  000560  0E3F               	movlw	high (_device_dsc+12)
  4145  000562  D7EE               	goto	L28
  4146  000564                     l3432:
  4147                           
  4148                           ; BSR set to: 0
  4149  000564  0ED5               	movlw	low (_device_dsc+12)
  4150  000566  6E2D               	movwf	??_EEPROM_Read& (0+255),c
  4151  000568  0E3F               	movlw	high (_device_dsc+12)
  4152  00056A  D015               	goto	L64
  4153  00056C                     l3434:
  4154                           
  4155                           ; BSR set to: 0
  4156  00056C  0E98               	movlw	low (_configDescriptor1+7)
  4157  00056E  6EF6               	movwf	tblptrl,c
  4158  000570  0E3F               	movlw	high (_configDescriptor1+7)
  4159  000572  D042               	goto	L24
  4160  000574                     L12:
  4161  000574                     	if	0	;tblptru may be non-zero
  4162  000574                     	endif
  4163  000574                     	if	0	;tblptru may be non-zero
  4164  000574                     	endif
  4165  000574  0008               	tblrd		*
  4166  000576  CFF5 F089          	movff	tablat,EEPROM_Read@data
  4167  00057A  D08B               	goto	l3466
  4168  00057C                     l3436:
  4169                           
  4170                           ; BSR set to: 0
  4171  00057C  0E99               	movlw	low (_configDescriptor1+8)
  4172  00057E  6EF6               	movwf	tblptrl,c
  4173  000580  0E3F               	movlw	high (_configDescriptor1+8)
  4174  000582  D03A               	goto	L24
  4175  000584                     l3438:
  4176                           
  4177                           ; BSR set to: 0
  4178  000584  0E1C               	movlw	28
  4179  000586  D01E               	goto	L16
  4180  000588                     l3442:
  4181                           
  4182                           ; BSR set to: 0
  4183  000588  0ECB               	movlw	low (_device_dsc+2)
  4184  00058A  6E2D               	movwf	??_EEPROM_Read& (0+255),c
  4185  00058C  0E3F               	movlw	high (_device_dsc+2)
  4186  00058E  D7D8               	goto	L28
  4187  000590                     l3444:
  4188                           
  4189                           ; BSR set to: 0
  4190  000590  0ECB               	movlw	low (_device_dsc+2)
  4191  000592  6E2D               	movwf	??_EEPROM_Read& (0+255),c
  4192  000594  0E3F               	movlw	high (_device_dsc+2)
  4193  000596                     L64:
  4194  000596  6E2E               	movwf	(??_EEPROM_Read+1)& (0+255),c
  4195  000598  0E01               	movlw	1
  4196  00059A  262D               	addwf	??_EEPROM_Read,f,c
  4197  00059C  0E00               	movlw	0
  4198  00059E  222E               	addwfc	??_EEPROM_Read+1,f,c
  4199  0005A0                     L22:
  4200  0005A0  C02D  FFF6         	movff	??_EEPROM_Read,tblptrl
  4201  0005A4  C02E  FFF7         	movff	??_EEPROM_Read+1,tblptrh
  4202  0005A8  D7E5               	goto	L12
  4203  0005AA                     l3446:
  4204                           
  4205                           ; BSR set to: 0
  4206  0005AA  0E94               	movlw	148
  4207  0005AC  D00B               	goto	L16
  4208  0005AE                     l3448:
  4209                           
  4210                           ; BSR set to: 0
  4211  0005AE  0E89               	movlw	low (_USB_SD_Ptr+2)
  4212  0005B0  6EF6               	movwf	tblptrl,c
  4213  0005B2  0E3F               	movlw	high (_USB_SD_Ptr+2)
  4214  0005B4  D021               	goto	L24
  4215  0005B6                     l3450:
  4216                           
  4217                           ; BSR set to: 0
  4218  0005B6  0E89               	movlw	low (_USB_SD_Ptr+2)
  4219  0005B8  6EF6               	movwf	tblptrl,c
  4220  0005BA  0E3F               	movlw	high (_USB_SD_Ptr+2)
  4221  0005BC  6EF7               	movwf	tblptrh,c
  4222  0005BE                     	if	0	;tblptru may be non-zero
  4223  0005BE                     	endif
  4224  0005BE                     	if	0	;tblptru may be non-zero
  4225  0005BE                     	endif
  4226  0005BE  0008               	tblrd		*
  4227  0005C0  50F5               	movf	tablat,w,c
  4228  0005C2  D015               	goto	L17
  4229  0005C4                     L16:
  4230  0005C4  0100               	movlb	0	; () banked
  4231  0005C6  6F89               	movwf	EEPROM_Read@data& (0+255),b
  4232  0005C8  D064               	goto	l3466
  4233  0005CA                     l3452:
  4234                           
  4235                           ; BSR set to: 0
  4236  0005CA  0E8B               	movlw	low (_USB_SD_Ptr+4)
  4237  0005CC  6EF6               	movwf	tblptrl,c
  4238  0005CE  0E3F               	movlw	high (_USB_SD_Ptr+4)
  4239  0005D0  D013               	goto	L24
  4240  0005D2                     l3454:
  4241                           
  4242                           ; BSR set to: 0
  4243  0005D2  0E8B               	movlw	low (_USB_SD_Ptr+4)
  4244  0005D4  6EF6               	movwf	tblptrl,c
  4245  0005D6  0E3F               	movlw	high (_USB_SD_Ptr+4)
  4246  0005D8  6EF7               	movwf	tblptrh,c
  4247  0005DA                     	if	0	;tblptru may be non-zero
  4248  0005DA                     	endif
  4249  0005DA                     	if	0	;tblptru may be non-zero
  4250  0005DA                     	endif
  4251  0005DA  0008               	tblrd		*
  4252  0005DC  CFF5 F02D          	movff	tablat,??_EEPROM_Read
  4253  0005E0  0E89               	movlw	low (_USB_SD_Ptr+2)
  4254  0005E2  6EF6               	movwf	tblptrl,c
  4255  0005E4  0E3F               	movlw	high (_USB_SD_Ptr+2)
  4256  0005E6  6EF7               	movwf	tblptrh,c
  4257  0005E8                     	if	0	;tblptru may be non-zero
  4258  0005E8                     	endif
  4259  0005E8                     	if	0	;tblptru may be non-zero
  4260  0005E8                     	endif
  4261  0005E8  0008               	tblrd		*
  4262  0005EA  50F5               	movf	tablat,w,c
  4263  0005EC  242D               	addwf	??_EEPROM_Read,w,c
  4264  0005EE                     L17:
  4265  0005EE  0F94               	addlw	148
  4266  0005F0  D7E9               	goto	L16
  4267  0005F2                     l3456:
  4268                           
  4269                           ; BSR set to: 0
  4270  0005F2  0E8D               	movlw	low (_USB_SD_Ptr+6)
  4271  0005F4  6EF6               	movwf	tblptrl,c
  4272  0005F6  0E3F               	movlw	high (_USB_SD_Ptr+6)
  4273  0005F8                     L24:
  4274  0005F8  6EF7               	movwf	tblptrh,c
  4275  0005FA  D7BC               	goto	L12
  4276  0005FC                     l238:
  4277                           
  4278                           ; BSR set to: 0
  4279  0005FC  C09A  F089         	movff	_eeprom_checksum,EEPROM_Read@data
  4280  000600  D048               	goto	l3466
  4281  000602                     l3458:
  4282                           
  4283                           ; BSR set to: 0
  4284  000602  0100               	movlb	0	; () banked
  4285  000604  519B               	movf	(_eeprom_checksum+1)& (0+255),w,b
  4286  000606  D7DE               	goto	L16
  4287  000608                     l3464:
  4288                           
  4289                           ; BSR set to: 0
  4290  000608  0100               	movlb	0	; () banked
  4291  00060A  518A               	movf	EEPROM_Read@addr& (0+255),w,b
  4292                           
  4293                           ; Switch size 1, requested type "space"
  4294                           ; Number of cases is 22, Range of values is 0 to 127
  4295                           ; switch strategies available:
  4296                           ; Name         Instructions Cycles
  4297                           ; simple_byte           67    34 (average)
  4298                           ;	Chosen strategy is simple_byte
  4299  00060C  0A00               	xorlw	0	; case 0
  4300  00060E  B4D8               	btfsc	status,2,c
  4301  000610  D792               	goto	l3420
  4302  000612  0A01               	xorlw	1	; case 1
  4303  000614  B4D8               	btfsc	status,2,c
  4304  000616  D78F               	goto	l3420
  4305  000618  0A03               	xorlw	3	; case 2
  4306  00061A  B4D8               	btfsc	status,2,c
  4307  00061C  D78E               	goto	l3422
  4308  00061E  0A01               	xorlw	1	; case 3
  4309  000620  B4D8               	btfsc	status,2,c
  4310  000622  D790               	goto	l3424
  4311  000624  0A07               	xorlw	7	; case 4
  4312  000626  B4D8               	btfsc	status,2,c
  4313  000628  D791               	goto	l3426
  4314  00062A  0A01               	xorlw	1	; case 5
  4315  00062C  B4D8               	btfsc	status,2,c
  4316  00062E  D792               	goto	l3428
  4317  000630  0A03               	xorlw	3	; case 6
  4318  000632  B4D8               	btfsc	status,2,c
  4319  000634  D793               	goto	l3430
  4320  000636  0A01               	xorlw	1	; case 7
  4321  000638  B4D8               	btfsc	status,2,c
  4322  00063A  D794               	goto	l3432
  4323  00063C  0A0F               	xorlw	15	; case 8
  4324  00063E  B4D8               	btfsc	status,2,c
  4325  000640  D795               	goto	l3434
  4326  000642  0A01               	xorlw	1	; case 9
  4327  000644  B4D8               	btfsc	status,2,c
  4328  000646  D79A               	goto	l3436
  4329  000648  0A03               	xorlw	3	; case 10
  4330  00064A  B4D8               	btfsc	status,2,c
  4331  00064C  D79B               	goto	l3438
  4332  00064E  0A01               	xorlw	1	; case 11
  4333  000650  B4D8               	btfsc	status,2,c
  4334  000652  D771               	goto	l3420
  4335  000654  0A07               	xorlw	7	; case 12
  4336  000656  B4D8               	btfsc	status,2,c
  4337  000658  D797               	goto	l3442
  4338  00065A  0A01               	xorlw	1	; case 13
  4339  00065C  B4D8               	btfsc	status,2,c
  4340  00065E  D798               	goto	l3444
  4341  000660  0A03               	xorlw	3	; case 14
  4342  000662  B4D8               	btfsc	status,2,c
  4343  000664  D7A2               	goto	l3446
  4344  000666  0A01               	xorlw	1	; case 15
  4345  000668  B4D8               	btfsc	status,2,c
  4346  00066A  D7A1               	goto	l3448
  4347  00066C  0A1F               	xorlw	31	; case 16
  4348  00066E  B4D8               	btfsc	status,2,c
  4349  000670  D7A2               	goto	l3450
  4350  000672  0A01               	xorlw	1	; case 17
  4351  000674  B4D8               	btfsc	status,2,c
  4352  000676  D7A9               	goto	l3452
  4353  000678  0A03               	xorlw	3	; case 18
  4354  00067A  B4D8               	btfsc	status,2,c
  4355  00067C  D7AA               	goto	l3454
  4356  00067E  0A01               	xorlw	1	; case 19
  4357  000680  B4D8               	btfsc	status,2,c
  4358  000682  D7B7               	goto	l3456
  4359  000684  0A6D               	xorlw	109	; case 126
  4360  000686  B4D8               	btfsc	status,2,c
  4361  000688  D7B9               	goto	l238
  4362  00068A  0A01               	xorlw	1	; case 127
  4363  00068C  B4D8               	btfsc	status,2,c
  4364  00068E  D7B9               	goto	l3458
  4365  000690  D752               	goto	l3420
  4366  000692                     l3466:
  4367                           
  4368                           ; BSR set to: 0
  4369                           ;blaster.c: 259: if (((14 + 6) <= addr) && (addr < ((14 + 6) + (USB_SD_Ptr[1][0]))))
  4370  000692  0E13               	movlw	19
  4371  000694  0100               	movlb	0	; () banked
  4372  000696  658A               	cpfsgt	EEPROM_Read@addr& (0+255),b
  4373  000698  D02A               	goto	l3472
  4374                           
  4375                           ; BSR set to: 0
  4376  00069A  0E89               	movlw	low (_USB_SD_Ptr+2)
  4377  00069C  6EF6               	movwf	tblptrl,c
  4378  00069E  0E3F               	movlw	high (_USB_SD_Ptr+2)
  4379  0006A0  6EF7               	movwf	tblptrh,c
  4380  0006A2                     	if	0	;tblptru may be non-zero
  4381  0006A2                     	endif
  4382  0006A2                     	if	0	;tblptru may be non-zero
  4383  0006A2                     	endif
  4384  0006A2  0008               	tblrd		*
  4385  0006A4  50F5               	movf	tablat,w,c
  4386  0006A6  6E2D               	movwf	??_EEPROM_Read& (0+255),c
  4387  0006A8  6A2E               	clrf	(??_EEPROM_Read+1)& (0+255),c
  4388  0006AA  0E14               	movlw	20
  4389  0006AC  262D               	addwf	??_EEPROM_Read,f,c
  4390  0006AE  0E00               	movlw	0
  4391  0006B0  222E               	addwfc	??_EEPROM_Read+1,f,c
  4392  0006B2  0100               	movlb	0	; () banked
  4393  0006B4  518A               	movf	EEPROM_Read@addr& (0+255),w,b
  4394  0006B6  6E2F               	movwf	(??_EEPROM_Read+2)& (0+255),c
  4395  0006B8  6A30               	clrf	(??_EEPROM_Read+3)& (0+255),c
  4396  0006BA  502D               	movf	??_EEPROM_Read,w,c
  4397  0006BC  5C2F               	subwf	??_EEPROM_Read+2,w,c
  4398  0006BE  5030               	movf	??_EEPROM_Read+3,w,c
  4399  0006C0  0A80               	xorlw	128
  4400  0006C2  6E31               	movwf	(??_EEPROM_Read+4)& (0+255),c
  4401  0006C4  502E               	movf	??_EEPROM_Read+1,w,c
  4402  0006C6  0A80               	xorlw	128
  4403  0006C8  5831               	subwfb	(??_EEPROM_Read+4)& (0+255),w,c
  4404  0006CA  B0D8               	btfsc	status,0,c
  4405  0006CC  D010               	goto	l3472
  4406                           
  4407                           ; BSR set to: 0
  4408                           ;blaster.c: 260: {
  4409                           ;blaster.c: 261: data = USB_SD_Ptr[1][addr - (14 + 6)];
  4410  0006CE  0EEC               	movlw	236
  4411  0006D0  6E2D               	movwf	??_EEPROM_Read& (0+255),c
  4412  0006D2  0EFF               	movlw	255
  4413  0006D4  6E2E               	movwf	(??_EEPROM_Read+1)& (0+255),c
  4414  0006D6  0100               	movlb	0	; () banked
  4415  0006D8  518A               	movf	EEPROM_Read@addr& (0+255),w,b
  4416  0006DA  6E2F               	movwf	(??_EEPROM_Read+2)& (0+255),c
  4417  0006DC  6A30               	clrf	(??_EEPROM_Read+3)& (0+255),c
  4418  0006DE  502D               	movf	??_EEPROM_Read,w,c
  4419  0006E0  262F               	addwf	??_EEPROM_Read+2,f,c
  4420  0006E2  502E               	movf	??_EEPROM_Read+1,w,c
  4421  0006E4  2230               	addwfc	??_EEPROM_Read+3,f,c
  4422  0006E6  0E89               	movlw	low (_USB_SD_Ptr+2)
  4423  0006E8  6EF6               	movwf	tblptrl,c
  4424  0006EA  0E3F               	movlw	high (_USB_SD_Ptr+2)
  4425  0006EC  D0CC               	goto	L19
  4426  0006EE                     l3472:
  4427                           
  4428                           ; BSR set to: 0
  4429                           ;blaster.c: 263: else if ((((14 + 6) + (USB_SD_Ptr[1][0])) <= addr) && (addr < (((14 + 6
      +                          ) + (USB_SD_Ptr[1][0])) + (USB_SD_Ptr[2][0]))))
  4430  0006EE  0E89               	movlw	low (_USB_SD_Ptr+2)
  4431  0006F0  6EF6               	movwf	tblptrl,c
  4432  0006F2  0E3F               	movlw	high (_USB_SD_Ptr+2)
  4433  0006F4  6EF7               	movwf	tblptrh,c
  4434  0006F6                     	if	0	;tblptru may be non-zero
  4435  0006F6                     	endif
  4436  0006F6                     	if	0	;tblptru may be non-zero
  4437  0006F6                     	endif
  4438  0006F6  0008               	tblrd		*
  4439  0006F8  50F5               	movf	tablat,w,c
  4440  0006FA  6E2D               	movwf	??_EEPROM_Read& (0+255),c
  4441  0006FC  6A2E               	clrf	(??_EEPROM_Read+1)& (0+255),c
  4442  0006FE  0E14               	movlw	20
  4443  000700  262D               	addwf	??_EEPROM_Read,f,c
  4444  000702  0E00               	movlw	0
  4445  000704  222E               	addwfc	??_EEPROM_Read+1,f,c
  4446  000706  0100               	movlb	0	; () banked
  4447  000708  518A               	movf	EEPROM_Read@addr& (0+255),w,b
  4448  00070A  6E2F               	movwf	(??_EEPROM_Read+2)& (0+255),c
  4449  00070C  6A30               	clrf	(??_EEPROM_Read+3)& (0+255),c
  4450  00070E  502D               	movf	??_EEPROM_Read,w,c
  4451  000710  5C2F               	subwf	??_EEPROM_Read+2,w,c
  4452  000712  5030               	movf	??_EEPROM_Read+3,w,c
  4453  000714  0A80               	xorlw	128
  4454  000716  6E31               	movwf	(??_EEPROM_Read+4)& (0+255),c
  4455  000718  502E               	movf	??_EEPROM_Read+1,w,c
  4456  00071A  0A80               	xorlw	128
  4457  00071C  5831               	subwfb	(??_EEPROM_Read+4)& (0+255),w,c
  4458  00071E  A0D8               	btfss	status,0,c
  4459  000720  D03F               	goto	l3478
  4460                           
  4461                           ; BSR set to: 0
  4462  000722  0E89               	movlw	low (_USB_SD_Ptr+2)
  4463  000724  6EF6               	movwf	tblptrl,c
  4464  000726  0E3F               	movlw	high (_USB_SD_Ptr+2)
  4465  000728  6EF7               	movwf	tblptrh,c
  4466  00072A                     	if	0	;tblptru may be non-zero
  4467  00072A                     	endif
  4468  00072A                     	if	0	;tblptru may be non-zero
  4469  00072A                     	endif
  4470  00072A  0008               	tblrd		*
  4471  00072C  50F5               	movf	tablat,w,c
  4472  00072E  6E2D               	movwf	??_EEPROM_Read& (0+255),c
  4473  000730  6A2E               	clrf	(??_EEPROM_Read+1)& (0+255),c
  4474  000732  0E8B               	movlw	low (_USB_SD_Ptr+4)
  4475  000734  6EF6               	movwf	tblptrl,c
  4476  000736  0E3F               	movlw	high (_USB_SD_Ptr+4)
  4477  000738  6EF7               	movwf	tblptrh,c
  4478  00073A                     	if	0	;tblptru may be non-zero
  4479  00073A                     	endif
  4480  00073A                     	if	0	;tblptru may be non-zero
  4481  00073A                     	endif
  4482  00073A  0008               	tblrd		*
  4483  00073C  50F5               	movf	tablat,w,c
  4484  00073E  262D               	addwf	??_EEPROM_Read,f,c
  4485  000740  0E00               	movlw	0
  4486  000742  222E               	addwfc	??_EEPROM_Read+1,f,c
  4487  000744  0E14               	movlw	20
  4488  000746  262D               	addwf	??_EEPROM_Read,f,c
  4489  000748  0E00               	movlw	0
  4490  00074A  222E               	addwfc	??_EEPROM_Read+1,f,c
  4491  00074C  0100               	movlb	0	; () banked
  4492  00074E  518A               	movf	EEPROM_Read@addr& (0+255),w,b
  4493  000750  6E2F               	movwf	(??_EEPROM_Read+2)& (0+255),c
  4494  000752  6A30               	clrf	(??_EEPROM_Read+3)& (0+255),c
  4495  000754  502D               	movf	??_EEPROM_Read,w,c
  4496  000756  5C2F               	subwf	??_EEPROM_Read+2,w,c
  4497  000758  5030               	movf	??_EEPROM_Read+3,w,c
  4498  00075A  0A80               	xorlw	128
  4499  00075C  6E31               	movwf	(??_EEPROM_Read+4)& (0+255),c
  4500  00075E  502E               	movf	??_EEPROM_Read+1,w,c
  4501  000760  0A80               	xorlw	128
  4502  000762  5831               	subwfb	(??_EEPROM_Read+4)& (0+255),w,c
  4503  000764  B0D8               	btfsc	status,0,c
  4504  000766  D01C               	goto	l3478
  4505                           
  4506                           ; BSR set to: 0
  4507                           ;blaster.c: 264: {
  4508                           ;blaster.c: 265: data = USB_SD_Ptr[2][addr - ((14 + 6) + (USB_SD_Ptr[1][0]))];
  4509  000768  0E89               	movlw	low (_USB_SD_Ptr+2)
  4510  00076A  6EF6               	movwf	tblptrl,c
  4511  00076C  0E3F               	movlw	high (_USB_SD_Ptr+2)
  4512  00076E  6EF7               	movwf	tblptrh,c
  4513  000770                     	if	0	;tblptru may be non-zero
  4514  000770                     	endif
  4515  000770                     	if	0	;tblptru may be non-zero
  4516  000770                     	endif
  4517  000770  0008               	tblrd		*
  4518  000772  50F5               	movf	tablat,w,c
  4519  000774  6E2D               	movwf	??_EEPROM_Read& (0+255),c
  4520  000776  6A2E               	clrf	(??_EEPROM_Read+1)& (0+255),c
  4521  000778  0E14               	movlw	20
  4522  00077A  262D               	addwf	??_EEPROM_Read,f,c
  4523  00077C  0E00               	movlw	0
  4524  00077E  222E               	addwfc	??_EEPROM_Read+1,f,c
  4525  000780  1E2D               	comf	??_EEPROM_Read,f,c
  4526  000782  1E2E               	comf	??_EEPROM_Read+1,f,c
  4527  000784  4A2D               	infsnz	??_EEPROM_Read,f,c
  4528  000786  2A2E               	incf	??_EEPROM_Read+1,f,c
  4529  000788  0100               	movlb	0	; () banked
  4530  00078A  518A               	movf	EEPROM_Read@addr& (0+255),w,b
  4531  00078C  6E2F               	movwf	(??_EEPROM_Read+2)& (0+255),c
  4532  00078E  6A30               	clrf	(??_EEPROM_Read+3)& (0+255),c
  4533  000790  502D               	movf	??_EEPROM_Read,w,c
  4534  000792  262F               	addwf	??_EEPROM_Read+2,f,c
  4535  000794  502E               	movf	??_EEPROM_Read+1,w,c
  4536  000796  2230               	addwfc	??_EEPROM_Read+3,f,c
  4537  000798  0E8B               	movlw	low (_USB_SD_Ptr+4)
  4538  00079A  6EF6               	movwf	tblptrl,c
  4539  00079C  0E3F               	movlw	high (_USB_SD_Ptr+4)
  4540  00079E  D073               	goto	L19
  4541  0007A0                     l3478:
  4542                           
  4543                           ; BSR set to: 0
  4544                           ;blaster.c: 267: else if (((((14 + 6) + (USB_SD_Ptr[1][0])) + (USB_SD_Ptr[2][0])) <= add
      +                          r) && (addr < ((((14 + 6) + (USB_SD_Ptr[1][0])) + (USB_SD_Ptr[2][0])) + (USB_SD_Ptr[3][0
      +                          ]))))
  4545  0007A0  0E89               	movlw	low (_USB_SD_Ptr+2)
  4546  0007A2  6EF6               	movwf	tblptrl,c
  4547  0007A4  0E3F               	movlw	high (_USB_SD_Ptr+2)
  4548  0007A6  6EF7               	movwf	tblptrh,c
  4549  0007A8                     	if	0	;tblptru may be non-zero
  4550  0007A8                     	endif
  4551  0007A8                     	if	0	;tblptru may be non-zero
  4552  0007A8                     	endif
  4553  0007A8  0008               	tblrd		*
  4554  0007AA  50F5               	movf	tablat,w,c
  4555  0007AC  6E2D               	movwf	??_EEPROM_Read& (0+255),c
  4556  0007AE  6A2E               	clrf	(??_EEPROM_Read+1)& (0+255),c
  4557  0007B0  0E8B               	movlw	low (_USB_SD_Ptr+4)
  4558  0007B2  6EF6               	movwf	tblptrl,c
  4559  0007B4  0E3F               	movlw	high (_USB_SD_Ptr+4)
  4560  0007B6  6EF7               	movwf	tblptrh,c
  4561  0007B8                     	if	0	;tblptru may be non-zero
  4562  0007B8                     	endif
  4563  0007B8                     	if	0	;tblptru may be non-zero
  4564  0007B8                     	endif
  4565  0007B8  0008               	tblrd		*
  4566  0007BA  50F5               	movf	tablat,w,c
  4567  0007BC  262D               	addwf	??_EEPROM_Read,f,c
  4568  0007BE  0E00               	movlw	0
  4569  0007C0  222E               	addwfc	??_EEPROM_Read+1,f,c
  4570  0007C2  0E14               	movlw	20
  4571  0007C4  262D               	addwf	??_EEPROM_Read,f,c
  4572  0007C6  0E00               	movlw	0
  4573  0007C8  222E               	addwfc	??_EEPROM_Read+1,f,c
  4574  0007CA  0100               	movlb	0	; () banked
  4575  0007CC  518A               	movf	EEPROM_Read@addr& (0+255),w,b
  4576  0007CE  6E2F               	movwf	(??_EEPROM_Read+2)& (0+255),c
  4577  0007D0  6A30               	clrf	(??_EEPROM_Read+3)& (0+255),c
  4578  0007D2  502D               	movf	??_EEPROM_Read,w,c
  4579  0007D4  5C2F               	subwf	??_EEPROM_Read+2,w,c
  4580  0007D6  5030               	movf	??_EEPROM_Read+3,w,c
  4581  0007D8  0A80               	xorlw	128
  4582  0007DA  6E31               	movwf	(??_EEPROM_Read+4)& (0+255),c
  4583  0007DC  502E               	movf	??_EEPROM_Read+1,w,c
  4584  0007DE  0A80               	xorlw	128
  4585  0007E0  5831               	subwfb	(??_EEPROM_Read+4)& (0+255),w,c
  4586  0007E2  A0D8               	btfss	status,0,c
  4587  0007E4  D062               	goto	l3484
  4588                           
  4589                           ; BSR set to: 0
  4590  0007E6  0E89               	movlw	low (_USB_SD_Ptr+2)
  4591  0007E8  6EF6               	movwf	tblptrl,c
  4592  0007EA  0E3F               	movlw	high (_USB_SD_Ptr+2)
  4593  0007EC  6EF7               	movwf	tblptrh,c
  4594  0007EE                     	if	0	;tblptru may be non-zero
  4595  0007EE                     	endif
  4596  0007EE                     	if	0	;tblptru may be non-zero
  4597  0007EE                     	endif
  4598  0007EE  0008               	tblrd		*
  4599  0007F0  50F5               	movf	tablat,w,c
  4600  0007F2  6E2D               	movwf	??_EEPROM_Read& (0+255),c
  4601  0007F4  6A2E               	clrf	(??_EEPROM_Read+1)& (0+255),c
  4602  0007F6  0E8B               	movlw	low (_USB_SD_Ptr+4)
  4603  0007F8  6EF6               	movwf	tblptrl,c
  4604  0007FA  0E3F               	movlw	high (_USB_SD_Ptr+4)
  4605  0007FC  6EF7               	movwf	tblptrh,c
  4606  0007FE                     	if	0	;tblptru may be non-zero
  4607  0007FE                     	endif
  4608  0007FE                     	if	0	;tblptru may be non-zero
  4609  0007FE                     	endif
  4610  0007FE  0008               	tblrd		*
  4611  000800  50F5               	movf	tablat,w,c
  4612  000802  262D               	addwf	??_EEPROM_Read,f,c
  4613  000804  0E00               	movlw	0
  4614  000806  222E               	addwfc	??_EEPROM_Read+1,f,c
  4615  000808  0E8D               	movlw	low (_USB_SD_Ptr+6)
  4616  00080A  6EF6               	movwf	tblptrl,c
  4617  00080C  0E3F               	movlw	high (_USB_SD_Ptr+6)
  4618  00080E  6EF7               	movwf	tblptrh,c
  4619  000810                     	if	0	;tblptru may be non-zero
  4620  000810                     	endif
  4621  000810                     	if	0	;tblptru may be non-zero
  4622  000810                     	endif
  4623  000810  0008               	tblrd		*
  4624  000812  50F5               	movf	tablat,w,c
  4625  000814  262D               	addwf	??_EEPROM_Read,f,c
  4626  000816  0E00               	movlw	0
  4627  000818  222E               	addwfc	??_EEPROM_Read+1,f,c
  4628  00081A  0E14               	movlw	20
  4629  00081C  262D               	addwf	??_EEPROM_Read,f,c
  4630  00081E  0E00               	movlw	0
  4631  000820  222E               	addwfc	??_EEPROM_Read+1,f,c
  4632  000822  0100               	movlb	0	; () banked
  4633  000824  518A               	movf	EEPROM_Read@addr& (0+255),w,b
  4634  000826  6E2F               	movwf	(??_EEPROM_Read+2)& (0+255),c
  4635  000828  6A30               	clrf	(??_EEPROM_Read+3)& (0+255),c
  4636  00082A  502D               	movf	??_EEPROM_Read,w,c
  4637  00082C  5C2F               	subwf	??_EEPROM_Read+2,w,c
  4638  00082E  5030               	movf	??_EEPROM_Read+3,w,c
  4639  000830  0A80               	xorlw	128
  4640  000832  6E31               	movwf	(??_EEPROM_Read+4)& (0+255),c
  4641  000834  502E               	movf	??_EEPROM_Read+1,w,c
  4642  000836  0A80               	xorlw	128
  4643  000838  5831               	subwfb	(??_EEPROM_Read+4)& (0+255),w,c
  4644  00083A  B0D8               	btfsc	status,0,c
  4645  00083C  D036               	goto	l3484
  4646                           
  4647                           ; BSR set to: 0
  4648                           ;blaster.c: 268: {
  4649                           ;blaster.c: 269: data = USB_SD_Ptr[3][addr - (((14 + 6) + (USB_SD_Ptr[1][0])) + (USB_SD_
      +                          Ptr[2][0]))];
  4650  00083E  0E89               	movlw	low (_USB_SD_Ptr+2)
  4651  000840  6EF6               	movwf	tblptrl,c
  4652  000842  0E3F               	movlw	high (_USB_SD_Ptr+2)
  4653  000844  6EF7               	movwf	tblptrh,c
  4654  000846                     	if	0	;tblptru may be non-zero
  4655  000846                     	endif
  4656  000846                     	if	0	;tblptru may be non-zero
  4657  000846                     	endif
  4658  000846  0008               	tblrd		*
  4659  000848  50F5               	movf	tablat,w,c
  4660  00084A  6E2D               	movwf	??_EEPROM_Read& (0+255),c
  4661  00084C  6A2E               	clrf	(??_EEPROM_Read+1)& (0+255),c
  4662  00084E  0E8B               	movlw	low (_USB_SD_Ptr+4)
  4663  000850  6EF6               	movwf	tblptrl,c
  4664  000852  0E3F               	movlw	high (_USB_SD_Ptr+4)
  4665  000854  6EF7               	movwf	tblptrh,c
  4666  000856                     	if	0	;tblptru may be non-zero
  4667  000856                     	endif
  4668  000856                     	if	0	;tblptru may be non-zero
  4669  000856                     	endif
  4670  000856  0008               	tblrd		*
  4671  000858  50F5               	movf	tablat,w,c
  4672  00085A  262D               	addwf	??_EEPROM_Read,f,c
  4673  00085C  0E00               	movlw	0
  4674  00085E  222E               	addwfc	??_EEPROM_Read+1,f,c
  4675  000860  0E14               	movlw	20
  4676  000862  262D               	addwf	??_EEPROM_Read,f,c
  4677  000864  0E00               	movlw	0
  4678  000866  222E               	addwfc	??_EEPROM_Read+1,f,c
  4679  000868  1E2D               	comf	??_EEPROM_Read,f,c
  4680  00086A  1E2E               	comf	??_EEPROM_Read+1,f,c
  4681  00086C  4A2D               	infsnz	??_EEPROM_Read,f,c
  4682  00086E  2A2E               	incf	??_EEPROM_Read+1,f,c
  4683  000870  0100               	movlb	0	; () banked
  4684  000872  518A               	movf	EEPROM_Read@addr& (0+255),w,b
  4685  000874  6E2F               	movwf	(??_EEPROM_Read+2)& (0+255),c
  4686  000876  6A30               	clrf	(??_EEPROM_Read+3)& (0+255),c
  4687  000878  502D               	movf	??_EEPROM_Read,w,c
  4688  00087A  262F               	addwf	??_EEPROM_Read+2,f,c
  4689  00087C  502E               	movf	??_EEPROM_Read+1,w,c
  4690  00087E  2230               	addwfc	??_EEPROM_Read+3,f,c
  4691  000880  0E8D               	movlw	low (_USB_SD_Ptr+6)
  4692  000882  6EF6               	movwf	tblptrl,c
  4693  000884  0E3F               	movlw	high (_USB_SD_Ptr+6)
  4694  000886                     L19:
  4695  000886  6EF7               	movwf	tblptrh,c
  4696  000888                     	if	0	;tblptru may be non-zero
  4697  000888                     	endif
  4698  000888                     	if	0	;tblptru may be non-zero
  4699  000888                     	endif
  4700  000888  0009               	tblrd		*+
  4701  00088A  CFF5 F031          	movff	tablat,??_EEPROM_Read+4
  4702  00088E  0009               	tblrd		*+
  4703  000890  CFF5 F032          	movff	tablat,??_EEPROM_Read+5
  4704  000894  502F               	movf	??_EEPROM_Read+2,w,c
  4705  000896  2631               	addwf	??_EEPROM_Read+4,f,c
  4706  000898  5030               	movf	??_EEPROM_Read+3,w,c
  4707  00089A  2232               	addwfc	??_EEPROM_Read+5,f,c
  4708  00089C  C031  FFF6         	movff	??_EEPROM_Read+4,tblptrl
  4709  0008A0  C032  FFF7         	movff	??_EEPROM_Read+5,tblptrh
  4710  0008A4                     	if	0	;tblptru may be non-zero
  4711  0008A4                     	endif
  4712  0008A4                     	if	0	;tblptru may be non-zero
  4713  0008A4                     	endif
  4714  0008A4  0008               	tblrd		*
  4715  0008A6  CFF5 F089          	movff	tablat,EEPROM_Read@data
  4716  0008AA                     l3484:
  4717                           
  4718                           ; BSR set to: 0
  4719                           ;blaster.c: 270: }
  4720                           ;blaster.c: 272: return data;
  4721  0008AA  0100               	movlb	0	; () banked
  4722  0008AC  5189               	movf	EEPROM_Read@data& (0+255),w,b
  4723  0008AE  0012               	return	
  4724  0008B0                     __end_of_EEPROM_Read:
  4725                           	opt stack 0
  4726                           tblptru	equ	0xFF8
  4727                           tblptrh	equ	0xFF7
  4728                           tblptrl	equ	0xFF6
  4729                           tablat	equ	0xFF5
  4730                           prodh	equ	0xFF4
  4731                           prodl	equ	0xFF3
  4732                           intcon	equ	0xFF2
  4733                           postinc0	equ	0xFEE
  4734                           wreg	equ	0xFE8
  4735                           indf1	equ	0xFE7
  4736                           postdec1	equ	0xFE5
  4737                           fsr1h	equ	0xFE2
  4738                           fsr1l	equ	0xFE1
  4739                           indf2	equ	0xFDF
  4740                           postinc2	equ	0xFDE
  4741                           postdec2	equ	0xFDD
  4742                           plusw2	equ	0xFDB
  4743                           fsr2h	equ	0xFDA
  4744                           fsr2l	equ	0xFD9
  4745                           status	equ	0xFD8
  4746                           
  4747 ;; *************** function _SYS_InterruptHigh *****************
  4748 ;; Defined at:
  4749 ;;		line 50 in file "../src/system.c"
  4750 ;; Parameters:    Size  Location     Type
  4751 ;;		None
  4752 ;; Auto vars:     Size  Location     Type
  4753 ;;		None
  4754 ;; Return value:  Size  Location     Type
  4755 ;;                  1    wreg      void 
  4756 ;; Registers used:
  4757 ;;		wreg, fsr1l, fsr1h, fsr2l, fsr2h, status,2, status,0, tblptrl, tblptrh, tblptru, prodl, prodh, cstack
  4758 ;; Tracked objects:
  4759 ;;		On entry : 0/0
  4760 ;;		On exit  : 0/0
  4761 ;;		Unchanged: 0/0
  4762 ;; Data sizes:     COMRAM   BANK0   BANK1
  4763 ;;      Params:         0       0       0
  4764 ;;      Locals:         0       0       0
  4765 ;;      Temps:         14       0       0
  4766 ;;      Totals:        14       0       0
  4767 ;;Total ram usage:       14 bytes
  4768 ;; Hardware stack levels used:    1
  4769 ;; Hardware stack levels required when called:    9
  4770 ;; This function calls:
  4771 ;;		_USBDeviceTasks
  4772 ;; This function is called by:
  4773 ;;		Interrupt level 2
  4774 ;; This function uses a non-reentrant model
  4775 ;;
  4776                           
  4777                           	psect	intcode
  4778  000008                     __pintcode:
  4779                           	opt stack 0
  4780  000008                     _SYS_InterruptHigh:
  4781                           	opt stack 18
  4782                           
  4783                           ; BSR set to: 0
  4784                           ;incstack = 0
  4785  000008  8252               	bsf	btemp,1,c	;set compiler interrupt flag (level 2)
  4786  00000A  CFFA F01F          	movff	pclath,??_SYS_InterruptHigh
  4787  00000E  CFFB F020          	movff	pclatu,??_SYS_InterruptHigh+1
  4788  000012  CFE9 F021          	movff	fsr0l,??_SYS_InterruptHigh+2
  4789  000016  CFEA F022          	movff	fsr0h,??_SYS_InterruptHigh+3
  4790  00001A  CFE1 F023          	movff	fsr1l,??_SYS_InterruptHigh+4
  4791  00001E  CFE2 F024          	movff	fsr1h,??_SYS_InterruptHigh+5
  4792  000022  CFD9 F025          	movff	fsr2l,??_SYS_InterruptHigh+6
  4793  000026  CFDA F026          	movff	fsr2h,??_SYS_InterruptHigh+7
  4794  00002A  CFF3 F027          	movff	prodl,??_SYS_InterruptHigh+8
  4795  00002E  CFF4 F028          	movff	prodh,??_SYS_InterruptHigh+9
  4796  000032  CFF6 F029          	movff	tblptrl,??_SYS_InterruptHigh+10
  4797  000036  CFF7 F02A          	movff	tblptrh,??_SYS_InterruptHigh+11
  4798  00003A  CFF8 F02B          	movff	tblptru,??_SYS_InterruptHigh+12
  4799  00003E  CFF5 F02C          	movff	tablat,??_SYS_InterruptHigh+13
  4800                           
  4801                           ;system.c: 53: USBDeviceTasks();
  4802  000042  EC99  F008         	call	_USBDeviceTasks	;wreg free
  4803  000046  C02C  FFF5         	movff	??_SYS_InterruptHigh+13,tablat
  4804  00004A  C02B  FFF8         	movff	??_SYS_InterruptHigh+12,tblptru
  4805  00004E  C02A  FFF7         	movff	??_SYS_InterruptHigh+11,tblptrh
  4806  000052  C029  FFF6         	movff	??_SYS_InterruptHigh+10,tblptrl
  4807  000056  C028  FFF4         	movff	??_SYS_InterruptHigh+9,prodh
  4808  00005A  C027  FFF3         	movff	??_SYS_InterruptHigh+8,prodl
  4809  00005E  C026  FFDA         	movff	??_SYS_InterruptHigh+7,fsr2h
  4810  000062  C025  FFD9         	movff	??_SYS_InterruptHigh+6,fsr2l
  4811  000066  C024  FFE2         	movff	??_SYS_InterruptHigh+5,fsr1h
  4812  00006A  C023  FFE1         	movff	??_SYS_InterruptHigh+4,fsr1l
  4813  00006E  C022  FFEA         	movff	??_SYS_InterruptHigh+3,fsr0h
  4814  000072  C021  FFE9         	movff	??_SYS_InterruptHigh+2,fsr0l
  4815  000076  C020  FFFB         	movff	??_SYS_InterruptHigh+1,pclatu
  4816  00007A  C01F  FFFA         	movff	??_SYS_InterruptHigh,pclath
  4817  00007E  9252               	bcf	btemp,1,c	;clear compiler interrupt flag (level 2)
  4818  000080  0011               	retfie		f
  4819  000082                     __end_of_SYS_InterruptHigh:
  4820                           	opt stack 0
  4821                           pclatu	equ	0xFFB
  4822                           pclath	equ	0xFFA
  4823                           tblptru	equ	0xFF8
  4824                           tblptrh	equ	0xFF7
  4825                           tblptrl	equ	0xFF6
  4826                           tablat	equ	0xFF5
  4827                           prodh	equ	0xFF4
  4828                           prodl	equ	0xFF3
  4829                           intcon	equ	0xFF2
  4830                           postinc0	equ	0xFEE
  4831                           fsr0h	equ	0xFEA
  4832                           fsr0l	equ	0xFE9
  4833                           wreg	equ	0xFE8
  4834                           indf1	equ	0xFE7
  4835                           postdec1	equ	0xFE5
  4836                           fsr1h	equ	0xFE2
  4837                           fsr1l	equ	0xFE1
  4838                           indf2	equ	0xFDF
  4839                           postinc2	equ	0xFDE
  4840                           postdec2	equ	0xFDD
  4841                           plusw2	equ	0xFDB
  4842                           fsr2h	equ	0xFDA
  4843                           fsr2l	equ	0xFD9
  4844                           status	equ	0xFD8
  4845                           
  4846 ;; *************** function _USBDeviceTasks *****************
  4847 ;; Defined at:
  4848 ;;		line 489 in file "../../mla/framework/usb/src/usb_device.c"
  4849 ;; Parameters:    Size  Location     Type
  4850 ;;		None
  4851 ;; Auto vars:     Size  Location     Type
  4852 ;;  i               1   29[COMRAM] unsigned char 
  4853 ;; Return value:  Size  Location     Type
  4854 ;;                  1    wreg      void 
  4855 ;; Registers used:
  4856 ;;		wreg, fsr1l, fsr1h, fsr2l, fsr2h, status,2, status,0, tblptrl, tblptrh, tblptru, prodl, prodh, cstack
  4857 ;; Tracked objects:
  4858 ;;		On entry : 0/0
  4859 ;;		On exit  : 0/0
  4860 ;;		Unchanged: 0/0
  4861 ;; Data sizes:     COMRAM   BANK0   BANK1
  4862 ;;      Params:         0       0       0
  4863 ;;      Locals:         1       0       0
  4864 ;;      Temps:          0       0       0
  4865 ;;      Totals:         1       0       0
  4866 ;;Total ram usage:        1 bytes
  4867 ;; Hardware stack levels used:    1
  4868 ;; Hardware stack levels required when called:    8
  4869 ;; This function calls:
  4870 ;;		_USBCtrlEPAllowStatusStage
  4871 ;;		_USBCtrlEPService
  4872 ;;		_USBStallHandler
  4873 ;;		_USBSuspend
  4874 ;;		_USBWakeFromSuspend
  4875 ;;		_USER_USB_CALLBACK_EVENT_HANDLER
  4876 ;;		i2_USBDeviceInit
  4877 ;; This function is called by:
  4878 ;;		_SYS_InterruptHigh
  4879 ;; This function uses a non-reentrant model
  4880 ;;
  4881                           
  4882                           	psect	text24
  4883  001132                     __ptext24:
  4884                           	opt stack 0
  4885  001132                     _USBDeviceTasks:
  4886                           	opt stack 18
  4887                           
  4888                           ;usb_device.c: 491: uint8_t i;
  4889                           ;usb_device.c: 602: if(USBDeviceState == ATTACHED_STATE)
  4890                           
  4891                           ;incstack = 0
  4892  001132  0100               	movlb	0	; () banked
  4893  001134  0586               	decf	_USBDeviceState& (0+255),w,b	;volatile
  4894  001136  B4D8               	btfsc	status,2,c
  4895                           
  4896                           ; BSR set to: 0
  4897                           ;usb_device.c: 603: {
  4898                           ;usb_device.c: 613: if(!UCONbits.SE0)
  4899  001138  BA64               	btfsc	3940,5,c	;volatile
  4900  00113A  D007               	goto	i2l4084
  4901                           
  4902                           ; BSR set to: 0
  4903                           ;usb_device.c: 614: {
  4904                           ;usb_device.c: 615: {UIR = 0;};
  4905  00113C  0E00               	movlw	0
  4906  00113E  6E62               	movwf	3938,c	;volatile
  4907                           
  4908                           ; BSR set to: 0
  4909                           ;usb_device.c: 619: UIEbits.URSTIE = 1;
  4910  001140  8060               	bsf	3936,0,c	;volatile
  4911                           
  4912                           ; BSR set to: 0
  4913                           ;usb_device.c: 620: UIEbits.IDLEIE = 1;
  4914  001142  8860               	bsf	3936,4,c	;volatile
  4915                           
  4916                           ;usb_device.c: 621: USBDeviceState = POWERED_STATE;
  4917  001144  0E02               	movlw	2
  4918  001146  0100               	movlb	0	; () banked
  4919  001148  6F86               	movwf	_USBDeviceState& (0+255),b	;volatile
  4920  00114A                     i2l4084:
  4921                           
  4922                           ; BSR set to: 0
  4923                           ;usb_device.c: 622: }
  4924                           ;usb_device.c: 623: }
  4925                           ;usb_device.c: 639: if(UIRbits.ACTVIF && UIEbits.ACTVIE)
  4926  00114A  B462               	btfsc	3938,2,c	;volatile
  4927                           
  4928                           ; BSR set to: 0
  4929  00114C  A460               	btfss	3936,2,c	;volatile
  4930  00114E  D003               	goto	i2l4092
  4931                           
  4932                           ; BSR set to: 0
  4933                           ;usb_device.c: 640: {
  4934                           ;usb_device.c: 641: (UIR &= 0xFB);
  4935  001150  9462               	bcf	3938,2,c	;volatile
  4936                           
  4937                           ; BSR set to: 0
  4938                           ;usb_device.c: 645: USBWakeFromSuspend();
  4939  001152  ECA9  F010         	call	_USBWakeFromSuspend	;wreg free
  4940  001156                     i2l4092:
  4941                           
  4942                           ;usb_device.c: 647: }
  4943                           ;usb_device.c: 652: if(UCONbits.SUSPND==1)
  4944  001156  A264               	btfss	3940,1,c	;volatile
  4945  001158  D002               	goto	i2l479
  4946                           
  4947                           ;usb_device.c: 653: {
  4948                           ;usb_device.c: 654: {PIR2bits.USBIF = 0;};
  4949  00115A  94A1               	bcf	4001,2,c	;volatile
  4950                           
  4951                           ;usb_device.c: 655: return;
  4952  00115C  0012               	return	
  4953  00115E                     i2l479:
  4954                           
  4955                           ;usb_device.c: 656: }
  4956                           ;usb_device.c: 668: if(UIRbits.URSTIF && UIEbits.URSTIE)
  4957  00115E  B062               	btfsc	3938,0,c	;volatile
  4958  001160  A060               	btfss	3936,0,c	;volatile
  4959  001162  D007               	goto	i2l4106
  4960                           
  4961                           ;usb_device.c: 669: {
  4962                           ;usb_device.c: 670: USBDeviceInit();
  4963  001164  ECF9  F007         	call	i2_USBDeviceInit	;wreg free
  4964                           
  4965                           ;usb_device.c: 674: {PIE2bits.USBIE = 1;};
  4966  001168  84A0               	bsf	4000,2,c	;volatile
  4967                           
  4968                           ;usb_device.c: 676: USBDeviceState = DEFAULT_STATE;
  4969  00116A  0E04               	movlw	4
  4970  00116C  0100               	movlb	0	; () banked
  4971  00116E  6F86               	movwf	_USBDeviceState& (0+255),b	;volatile
  4972                           
  4973                           ; BSR set to: 0
  4974                           ;usb_device.c: 686: (UIR &= 0xFE);
  4975  001170  9062               	bcf	3938,0,c	;volatile
  4976  001172                     i2l4106:
  4977                           
  4978                           ;usb_device.c: 687: }
  4979                           ;usb_device.c: 692: if(UIRbits.IDLEIF && UIEbits.IDLEIE)
  4980  001172  B862               	btfsc	3938,4,c	;volatile
  4981  001174  A860               	btfss	3936,4,c	;volatile
  4982  001176  D003               	goto	i2l4114
  4983                           
  4984                           ;usb_device.c: 693: {
  4985                           ;usb_device.c: 698: USBSuspend();
  4986  001178  ECD6  F010         	call	_USBSuspend	;wreg free
  4987                           
  4988                           ;usb_device.c: 701: (UIR &= 0xEF);
  4989  00117C  9862               	bcf	3938,4,c	;volatile
  4990  00117E                     i2l4114:
  4991                           
  4992                           ;usb_device.c: 702: }
  4993                           ;usb_device.c: 704: if(UIRbits.SOFIF)
  4994  00117E  AC62               	btfss	3938,6,c	;volatile
  4995  001180  D018               	goto	i2l4130
  4996                           
  4997                           ;usb_device.c: 705: {
  4998                           ;usb_device.c: 706: if(UIEbits.SOFIE)
  4999  001182  AC60               	btfss	3936,6,c	;volatile
  5000  001184  D00E               	goto	i2l4120
  5001                           
  5002                           ;usb_device.c: 707: {
  5003                           ;usb_device.c: 708: USER_USB_CALLBACK_EVENT_HANDLER(EVENT_SOF,0,1);
  5004  001186  0E00               	movlw	0
  5005  001188  6E0E               	movwf	USER_USB_CALLBACK_EVENT_HANDLER@event+1,c
  5006  00118A  0E73               	movlw	115
  5007  00118C  6E0D               	movwf	USER_USB_CALLBACK_EVENT_HANDLER@event,c
  5008  00118E  0E00               	movlw	0
  5009  001190  6E0F               	movwf	USER_USB_CALLBACK_EVENT_HANDLER@pdata,c
  5010  001192  0E00               	movlw	0
  5011  001194  6E10               	movwf	USER_USB_CALLBACK_EVENT_HANDLER@pdata+1,c
  5012  001196  0E00               	movlw	0
  5013  001198  6E12               	movwf	USER_USB_CALLBACK_EVENT_HANDLER@size+1,c
  5014  00119A  0E01               	movlw	1
  5015  00119C  6E11               	movwf	USER_USB_CALLBACK_EVENT_HANDLER@size,c
  5016  00119E  EC6A  F00F         	call	_USER_USB_CALLBACK_EVENT_HANDLER	;wreg free
  5017  0011A2                     i2l4120:
  5018                           
  5019                           ;usb_device.c: 709: }
  5020                           ;usb_device.c: 710: (UIR &= 0xBF);
  5021  0011A2  9C62               	bcf	3938,6,c	;volatile
  5022                           
  5023                           ;usb_device.c: 735: if(USBStatusStageTimeoutCounter != 0u)
  5024  0011A4  504B               	movf	_USBStatusStageTimeoutCounter,w,c	;volatile
  5025  0011A6  A4D8               	btfss	status,2,c
  5026                           
  5027                           ;usb_device.c: 736: {
  5028                           ;usb_device.c: 737: USBStatusStageTimeoutCounter--;
  5029  0011A8  064B               	decf	_USBStatusStageTimeoutCounter,f,c	;volatile
  5030                           
  5031                           ;usb_device.c: 738: }
  5032                           ;usb_device.c: 744: if(USBStatusStageTimeoutCounter == 0)
  5033  0011AA  504B               	movf	_USBStatusStageTimeoutCounter,w,c	;volatile
  5034  0011AC  B4D8               	btfsc	status,2,c
  5035                           
  5036                           ;usb_device.c: 745: {
  5037                           ;usb_device.c: 746: USBCtrlEPAllowStatusStage();
  5038  0011AE  EC3F  F00D         	call	_USBCtrlEPAllowStatusStage	;wreg free
  5039  0011B2                     i2l4130:
  5040                           
  5041                           ;usb_device.c: 747: }
  5042                           ;usb_device.c: 749: }
  5043                           ;usb_device.c: 751: if(UIRbits.STALLIF && UIEbits.STALLIE)
  5044  0011B2  BA62               	btfsc	3938,5,c	;volatile
  5045  0011B4  AA60               	btfss	3936,5,c	;volatile
  5046  0011B6  D002               	goto	i2l4136
  5047                           
  5048                           ;usb_device.c: 752: {
  5049                           ;usb_device.c: 753: USBStallHandler();
  5050  0011B8  EC19  F010         	call	_USBStallHandler	;wreg free
  5051  0011BC                     i2l4136:
  5052                           
  5053                           ;usb_device.c: 754: }
  5054                           ;usb_device.c: 756: if(UIRbits.UERRIF && UIEbits.UERRIE)
  5055  0011BC  B262               	btfsc	3938,1,c	;volatile
  5056  0011BE  A260               	btfss	3936,1,c	;volatile
  5057  0011C0  D010               	goto	i2l4144
  5058                           
  5059                           ;usb_device.c: 757: {
  5060                           ;usb_device.c: 758: USER_USB_CALLBACK_EVENT_HANDLER(EVENT_BUS_ERROR,0,1);
  5061  0011C2  0E7F               	movlw	127
  5062  0011C4  6E0E               	movwf	USER_USB_CALLBACK_EVENT_HANDLER@event+1,c
  5063  0011C6  680D               	setf	USER_USB_CALLBACK_EVENT_HANDLER@event,c
  5064  0011C8  0E00               	movlw	0
  5065  0011CA  6E0F               	movwf	USER_USB_CALLBACK_EVENT_HANDLER@pdata,c
  5066  0011CC  0E00               	movlw	0
  5067  0011CE  6E10               	movwf	USER_USB_CALLBACK_EVENT_HANDLER@pdata+1,c
  5068  0011D0  0E00               	movlw	0
  5069  0011D2  6E12               	movwf	USER_USB_CALLBACK_EVENT_HANDLER@size+1,c
  5070  0011D4  0E01               	movlw	1
  5071  0011D6  6E11               	movwf	USER_USB_CALLBACK_EVENT_HANDLER@size,c
  5072  0011D8  EC6A  F00F         	call	_USER_USB_CALLBACK_EVENT_HANDLER	;wreg free
  5073                           
  5074                           ;usb_device.c: 759: {UEIR = 0;};
  5075  0011DC  0E00               	movlw	0
  5076  0011DE  010F               	movlb	15	; () banked
  5077  0011E0  6F5F               	movwf	95,b	;volatile
  5078  0011E2                     i2l4144:
  5079                           
  5080                           ;usb_device.c: 767: }
  5081                           ;usb_device.c: 774: if(USBDeviceState < DEFAULT_STATE)
  5082  0011E2  0E04               	movlw	4
  5083  0011E4  0100               	movlb	0	; () banked
  5084  0011E6  6186               	cpfslt	_USBDeviceState& (0+255),b	;volatile
  5085  0011E8  D002               	goto	i2l489
  5086                           
  5087                           ; BSR set to: 0
  5088                           ;usb_device.c: 775: {
  5089                           ;usb_device.c: 776: {PIR2bits.USBIF = 0;};
  5090  0011EA  94A1               	bcf	4001,2,c	;volatile
  5091                           
  5092                           ;usb_device.c: 777: return;
  5093  0011EC  0012               	return	
  5094  0011EE                     i2l489:
  5095                           
  5096                           ; BSR set to: 0
  5097                           ;usb_device.c: 778: }
  5098                           ;usb_device.c: 783: if(UIEbits.TRNIE)
  5099  0011EE  A660               	btfss	3936,3,c	;volatile
  5100  0011F0  D039               	goto	i2l490
  5101                           
  5102                           ; BSR set to: 0
  5103                           ;usb_device.c: 784: {
  5104                           ;usb_device.c: 785: for(i = 0; i < 4u; i++)
  5105  0011F2  0E00               	movlw	0
  5106  0011F4  6E1E               	movwf	USBDeviceTasks@i,c
  5107  0011F6                     i2l4150:
  5108                           
  5109                           ; BSR set to: 0
  5110  0011F6  0E03               	movlw	3
  5111  0011F8  641E               	cpfsgt	USBDeviceTasks@i,c
  5112  0011FA  D001               	goto	i2l491
  5113  0011FC  D033               	goto	i2l490
  5114  0011FE                     i2l491:
  5115                           
  5116                           ;usb_device.c: 786: {
  5117                           ;usb_device.c: 787: if(UIRbits.TRNIF)
  5118  0011FE  A662               	btfss	3938,3,c	;volatile
  5119  001200  D031               	goto	i2l490
  5120                           
  5121                           ;usb_device.c: 788: {
  5122                           ;usb_device.c: 790: USTATcopy.Val = USTAT;
  5123  001202  CF63 F051          	movff	3939,_USTATcopy	;volatile
  5124                           
  5125                           ;usb_device.c: 791: endpoint_number = USTATcopy.endpoint_number;
  5126  001206  3051               	rrcf	_USTATcopy,w,c	;volatile
  5127  001208  32E8               	rrcf	wreg,f,c
  5128  00120A  32E8               	rrcf	wreg,f,c
  5129  00120C  0B0F               	andlw	15
  5130  00120E  6E4D               	movwf	_endpoint_number,c	;volatile
  5131                           
  5132                           ;usb_device.c: 793: (UIR &= 0xF7);
  5133  001210  9662               	bcf	3938,3,c	;volatile
  5134                           
  5135                           ;usb_device.c: 798: if(USTATcopy.direction == 0)
  5136  001212  B451               	btfsc	_USTATcopy,2,c	;volatile
  5137  001214  D007               	goto	i2l4164
  5138                           
  5139                           ;usb_device.c: 799: {
  5140                           ;usb_device.c: 800: ep_data_out[endpoint_number].bits.ping_pong_state ^= 1;
  5141  001216  504D               	movf	_endpoint_number,w,c	;volatile
  5142  001218  0D01               	mullw	1
  5143  00121A  0E77               	movlw	low _ep_data_out
  5144  00121C  24F3               	addwf	prodl,w,c
  5145  00121E  6ED9               	movwf	fsr2l,c
  5146  001220  0E00               	movlw	high _ep_data_out
  5147  001222  D006               	goto	L29
  5148  001224                     i2l4164:
  5149                           
  5150                           ;usb_device.c: 802: else
  5151                           ;usb_device.c: 803: {
  5152                           ;usb_device.c: 804: ep_data_in[endpoint_number].bits.ping_pong_state ^= 1;
  5153  001224  504D               	movf	_endpoint_number,w,c	;volatile
  5154  001226  0D01               	mullw	1
  5155  001228  0E74               	movlw	low _ep_data_in
  5156  00122A  24F3               	addwf	prodl,w,c
  5157  00122C  6ED9               	movwf	fsr2l,c
  5158  00122E  0E00               	movlw	high _ep_data_in
  5159  001230                     L29:
  5160  001230  20F4               	addwfc	prodh,w,c
  5161  001232  6EDA               	movwf	fsr2h,c
  5162  001234  0100               	movlb	0	; () banked
  5163  001236  70DF               	btg	indf2,0,c
  5164                           
  5165                           ; BSR set to: 0
  5166                           ;usb_device.c: 805: }
  5167                           ;usb_device.c: 810: if(endpoint_number == 0)
  5168                           
  5169                           ; BSR set to: 0
  5170  001238  504D               	movf	_endpoint_number,w,c	;volatile
  5171  00123A  A4D8               	btfss	status,2,c
  5172  00123C  D003               	goto	i2l4170
  5173                           
  5174                           ; BSR set to: 0
  5175                           ;usb_device.c: 811: {
  5176                           ;usb_device.c: 812: USBCtrlEPService();
  5177  00123E  ECA9  F00B         	call	_USBCtrlEPService	;wreg free
  5178                           
  5179                           ;usb_device.c: 813: }
  5180  001242  D00E               	goto	i2l4172
  5181  001244                     i2l4170:
  5182                           
  5183                           ;usb_device.c: 814: else
  5184                           ;usb_device.c: 815: {
  5185                           ;usb_device.c: 816: USER_USB_CALLBACK_EVENT_HANDLER(EVENT_TRANSFER,(uint8_t*)&USTATcopy.
      +                          Val,0);
  5186  001244  0E00               	movlw	0
  5187  001246  6E0E               	movwf	USER_USB_CALLBACK_EVENT_HANDLER@event+1,c
  5188  001248  0E72               	movlw	114
  5189  00124A  6E0D               	movwf	USER_USB_CALLBACK_EVENT_HANDLER@event,c
  5190  00124C  0E51               	movlw	low _USTATcopy
  5191  00124E  6E0F               	movwf	USER_USB_CALLBACK_EVENT_HANDLER@pdata,c
  5192  001250  0E00               	movlw	high _USTATcopy
  5193  001252  6E10               	movwf	USER_USB_CALLBACK_EVENT_HANDLER@pdata+1,c
  5194  001254  0E00               	movlw	0
  5195  001256  6E12               	movwf	USER_USB_CALLBACK_EVENT_HANDLER@size+1,c
  5196  001258  0E00               	movlw	0
  5197  00125A  6E11               	movwf	USER_USB_CALLBACK_EVENT_HANDLER@size,c
  5198  00125C  EC6A  F00F         	call	_USER_USB_CALLBACK_EVENT_HANDLER	;wreg free
  5199  001260                     i2l4172:
  5200  001260  2A1E               	incf	USBDeviceTasks@i,f,c
  5201  001262  D7C9               	goto	i2l4150
  5202  001264                     i2l490:
  5203                           
  5204                           ;usb_device.c: 822: }
  5205                           ;usb_device.c: 823: }
  5206                           ;usb_device.c: 824: }
  5207                           ;usb_device.c: 826: {PIR2bits.USBIF = 0;};
  5208  001264  94A1               	bcf	4001,2,c	;volatile
  5209  001266  0012               	return		;funcret
  5210  001268                     __end_of_USBDeviceTasks:
  5211                           	opt stack 0
  5212                           pclatu	equ	0xFFB
  5213                           pclath	equ	0xFFA
  5214                           tblptru	equ	0xFF8
  5215                           tblptrh	equ	0xFF7
  5216                           tblptrl	equ	0xFF6
  5217                           tablat	equ	0xFF5
  5218                           prodh	equ	0xFF4
  5219                           prodl	equ	0xFF3
  5220                           intcon	equ	0xFF2
  5221                           postinc0	equ	0xFEE
  5222                           fsr0h	equ	0xFEA
  5223                           fsr0l	equ	0xFE9
  5224                           wreg	equ	0xFE8
  5225                           indf1	equ	0xFE7
  5226                           postdec1	equ	0xFE5
  5227                           fsr1h	equ	0xFE2
  5228                           fsr1l	equ	0xFE1
  5229                           indf2	equ	0xFDF
  5230                           postinc2	equ	0xFDE
  5231                           postdec2	equ	0xFDD
  5232                           plusw2	equ	0xFDB
  5233                           fsr2h	equ	0xFDA
  5234                           fsr2l	equ	0xFD9
  5235                           status	equ	0xFD8
  5236                           
  5237 ;; *************** function i2_USBDeviceInit *****************
  5238 ;; Defined at:
  5239 ;;		line 298 in file "../../mla/framework/usb/src/usb_device.c"
  5240 ;; Parameters:    Size  Location     Type
  5241 ;;		None
  5242 ;; Auto vars:     Size  Location     Type
  5243 ;;  USBDeviceIni    1    8[COMRAM] unsigned char 
  5244 ;; Return value:  Size  Location     Type
  5245 ;;                  1    wreg      void 
  5246 ;; Registers used:
  5247 ;;		wreg, fsr2l, fsr2h, status,2, status,0, prodl, prodh, cstack
  5248 ;; Tracked objects:
  5249 ;;		On entry : 0/0
  5250 ;;		On exit  : 0/0
  5251 ;;		Unchanged: 0/0
  5252 ;; Data sizes:     COMRAM   BANK0   BANK1
  5253 ;;      Params:         0       0       0
  5254 ;;      Locals:         1       0       0
  5255 ;;      Temps:          0       0       0
  5256 ;;      Totals:         1       0       0
  5257 ;;Total ram usage:        1 bytes
  5258 ;; Hardware stack levels used:    1
  5259 ;; Hardware stack levels required when called:    1
  5260 ;; This function calls:
  5261 ;;		i2_memset
  5262 ;; This function is called by:
  5263 ;;		_USBDeviceTasks
  5264 ;; This function uses a non-reentrant model
  5265 ;;
  5266                           
  5267                           	psect	text25
  5268  000FF2                     __ptext25:
  5269                           	opt stack 0
  5270  000FF2                     i2_USBDeviceInit:
  5271                           	opt stack 24
  5272                           
  5273                           ;usb_device.c: 300: uint8_t i;
  5274                           ;usb_device.c: 302: {PIE2bits.USBIE = 0;};
  5275                           
  5276                           ;incstack = 0
  5277  000FF2  94A0               	bcf	4000,2,c	;volatile
  5278                           
  5279                           ;usb_device.c: 305: {UEIR = 0;};
  5280  000FF4  0E00               	movlw	0
  5281  000FF6  010F               	movlb	15	; () banked
  5282  000FF8  6F5F               	movwf	95,b	;volatile
  5283                           
  5284                           ;usb_device.c: 308: {UIR = 0;};
  5285  000FFA  0E00               	movlw	0
  5286  000FFC  6E62               	movwf	3938,c	;volatile
  5287                           
  5288                           ;usb_device.c: 311: UEP0 = 0;
  5289  000FFE  0E00               	movlw	0
  5290  001000  010F               	movlb	15	; () banked
  5291  001002  6F53               	movwf	83,b	;volatile
  5292                           
  5293                           ; BSR set to: 15
  5294                           ;usb_device.c: 313: memset((void*)&UEP1,0x00,(2));;
  5295  001004  0E54               	movlw	84
  5296  001006  6E01               	movwf	i2memset@p1,c
  5297  001008  0E0F               	movlw	15
  5298  00100A  6E02               	movwf	i2memset@p1+1,c
  5299  00100C  0E00               	movlw	0
  5300  00100E  6E04               	movwf	i2memset@c+1,c
  5301  001010  0E00               	movlw	0
  5302  001012  6E03               	movwf	i2memset@c,c
  5303  001014  0E00               	movlw	0
  5304  001016  6E06               	movwf	i2memset@n+1,c
  5305  001018  0E02               	movlw	2
  5306  00101A  6E05               	movwf	i2memset@n,c
  5307  00101C  ECC0  F010         	call	i2_memset	;wreg free
  5308                           
  5309                           ;usb_device.c: 315: { UCFG = 0x10 | 0x00 | 0x04 | 0x02; UEIE = 0x9F; UIE = 0x39 | 0x40 |
      +                           0x02; };
  5310  001020  0E16               	movlw	22
  5311  001022  6E61               	movwf	3937,c	;volatile
  5312  001024  0E9F               	movlw	159
  5313  001026  010F               	movlb	15	; () banked
  5314  001028  6F5B               	movwf	91,b	;volatile
  5315                           
  5316                           ; BSR set to: 15
  5317  00102A  0E7B               	movlw	123
  5318  00102C  6E60               	movwf	3936,c	;volatile
  5319                           
  5320                           ; BSR set to: 15
  5321                           ;usb_device.c: 318: ;
  5322                           ;usb_device.c: 321: ;
  5323                           ;usb_device.c: 324: for(i=0;i<(sizeof(BDT)/sizeof(BDT_ENTRY));i++)
  5324  00102E  0E00               	movlw	0
  5325  001030  6E09               	movwf	i2USBDeviceInit@i,c
  5326  001032                     i2l3770:
  5327                           
  5328                           ; BSR set to: 15
  5329  001032  0E0B               	movlw	11
  5330  001034  6409               	cpfsgt	i2USBDeviceInit@i,c
  5331  001036  D001               	goto	i2l3774
  5332  001038  D00E               	goto	i2l467
  5333  00103A                     i2l3774:
  5334                           
  5335                           ;usb_device.c: 325: {
  5336                           ;usb_device.c: 326: BDT[i].Val = 0x00;
  5337  00103A  5009               	movf	i2USBDeviceInit@i,w,c
  5338  00103C  0D04               	mullw	4
  5339  00103E  0E00               	movlw	0
  5340  001040  24F3               	addwf	prodl,w,c
  5341  001042  6ED9               	movwf	fsr2l,c
  5342  001044  0E02               	movlw	2
  5343  001046  20F4               	addwfc	prodh,w,c
  5344  001048  6EDA               	movwf	fsr2h,c
  5345  00104A  6ADE               	clrf	postinc2,c
  5346  00104C  6ADE               	clrf	postinc2,c
  5347  00104E  6ADE               	clrf	postinc2,c
  5348  001050  6ADD               	clrf	postdec2,c
  5349  001052  2A09               	incf	i2USBDeviceInit@i,f,c
  5350  001054  D7EE               	goto	i2l3770
  5351  001056                     i2l467:
  5352                           
  5353                           ;usb_device.c: 327: }
  5354                           ;usb_device.c: 330: UCONbits.PPBRST = 1;
  5355  001056  8C64               	bsf	3940,6,c	;volatile
  5356                           
  5357                           ;usb_device.c: 333: UADDR = 0x00;
  5358  001058  0E00               	movlw	0
  5359  00105A  010F               	movlb	15	; () banked
  5360  00105C  6F5C               	movwf	92,b	;volatile
  5361                           
  5362                           ; BSR set to: 15
  5363                           ;usb_device.c: 336: UCONbits.PKTDIS = 0;
  5364  00105E  9864               	bcf	3940,4,c	;volatile
  5365                           
  5366                           ; BSR set to: 15
  5367                           ;usb_device.c: 339: UCONbits.PPBRST = 0;
  5368  001060  9C64               	bcf	3940,6,c	;volatile
  5369                           
  5370                           ;usb_device.c: 342: while(UIRbits.TRNIF == 1)
  5371  001062  D00B               	goto	i2l3794
  5372  001064                     i2l3786:
  5373                           
  5374                           ;usb_device.c: 343: {
  5375                           ;usb_device.c: 344: (UIR &= 0xF7);
  5376  001064  9662               	bcf	3938,3,c	;volatile
  5377                           
  5378                           ;usb_device.c: 346: inPipes[0].info.Val = 0;
  5379  001066  0E00               	movlw	0
  5380  001068  6E36               	movwf	_inPipes+3,c	;volatile
  5381                           
  5382                           ;usb_device.c: 347: outPipes[0].info.Val = 0;
  5383  00106A  0E00               	movlw	0
  5384  00106C  0100               	movlb	0	; () banked
  5385  00106E  6F63               	movwf	(_outPipes+3)& (0+255),b	;volatile
  5386                           
  5387                           ; BSR set to: 0
  5388                           ;usb_device.c: 348: outPipes[0].wCount.Val = 0;
  5389  001070  0E00               	movlw	0
  5390  001072  0100               	movlb	0	; () banked
  5391  001074  6F65               	movwf	(_outPipes+5)& (0+255),b	;volatile
  5392  001076  0E00               	movlw	0
  5393  001078  6F64               	movwf	(_outPipes+4)& (0+255),b	;volatile
  5394  00107A                     i2l3794:
  5395  00107A  B662               	btfsc	3938,3,c	;volatile
  5396  00107C  D7F3               	goto	i2l3786
  5397                           
  5398                           ;usb_device.c: 349: }
  5399                           ;usb_device.c: 353: USBStatusStageEnabledFlag1 = 1;
  5400  00107E  0E01               	movlw	1
  5401  001080  6E49               	movwf	_USBStatusStageEnabledFlag1,c	;volatile
  5402                           
  5403                           ;usb_device.c: 354: USBStatusStageEnabledFlag2 = 1;
  5404  001082  0E01               	movlw	1
  5405  001084  6E4A               	movwf	_USBStatusStageEnabledFlag2,c	;volatile
  5406                           
  5407                           ;usb_device.c: 356: USBDeferINDataStagePackets = 0;
  5408  001086  0E00               	movlw	0
  5409  001088  6E46               	movwf	_USBDeferINDataStagePackets,c	;volatile
  5410                           
  5411                           ;usb_device.c: 357: USBDeferOUTDataStagePackets = 0;
  5412  00108A  0E00               	movlw	0
  5413  00108C  6E47               	movwf	_USBDeferOUTDataStagePackets,c	;volatile
  5414                           
  5415                           ;usb_device.c: 358: USBBusIsSuspended = 0;
  5416  00108E  0E00               	movlw	0
  5417  001090  6E45               	movwf	_USBBusIsSuspended,c	;volatile
  5418                           
  5419                           ;usb_device.c: 362: for(i = 0; i < (uint8_t)(2+1u); i++)
  5420  001092  0E00               	movlw	0
  5421  001094  6E09               	movwf	i2USBDeviceInit@i,c
  5422  001096                     i2l3798:
  5423  001096  0E02               	movlw	2
  5424  001098  6409               	cpfsgt	i2USBDeviceInit@i,c
  5425  00109A  D001               	goto	i2l3802
  5426  00109C  D02E               	goto	i2l3808
  5427  00109E                     i2l3802:
  5428                           
  5429                           ;usb_device.c: 363: {
  5430                           ;usb_device.c: 364: pBDTEntryIn[i] = 0u;
  5431  00109E  5009               	movf	i2USBDeviceInit@i,w,c
  5432  0010A0  0D02               	mullw	2
  5433  0010A2  0E68               	movlw	low _pBDTEntryIn
  5434  0010A4  24F3               	addwf	prodl,w,c
  5435  0010A6  6ED9               	movwf	fsr2l,c
  5436  0010A8  0E00               	movlw	high _pBDTEntryIn
  5437  0010AA  20F4               	addwfc	prodh,w,c
  5438  0010AC  6EDA               	movwf	fsr2h,c
  5439  0010AE  0E00               	movlw	0
  5440  0010B0  6EDE               	movwf	postinc2,c
  5441  0010B2  0E00               	movlw	0
  5442  0010B4  6EDD               	movwf	postdec2,c
  5443                           
  5444                           ;usb_device.c: 365: pBDTEntryOut[i] = 0u;
  5445  0010B6  5009               	movf	i2USBDeviceInit@i,w,c
  5446  0010B8  0D02               	mullw	2
  5447  0010BA  0E6E               	movlw	low _pBDTEntryOut
  5448  0010BC  24F3               	addwf	prodl,w,c
  5449  0010BE  6ED9               	movwf	fsr2l,c
  5450  0010C0  0E00               	movlw	high _pBDTEntryOut
  5451  0010C2  20F4               	addwfc	prodh,w,c
  5452  0010C4  6EDA               	movwf	fsr2h,c
  5453  0010C6  0E00               	movlw	0
  5454  0010C8  6EDE               	movwf	postinc2,c
  5455  0010CA  0E00               	movlw	0
  5456  0010CC  6EDD               	movwf	postdec2,c
  5457                           
  5458                           ;usb_device.c: 366: ep_data_in[i].Val = 0u;
  5459  0010CE  5009               	movf	i2USBDeviceInit@i,w,c
  5460  0010D0  0D01               	mullw	1
  5461  0010D2  0E74               	movlw	low _ep_data_in
  5462  0010D4  24F3               	addwf	prodl,w,c
  5463  0010D6  6ED9               	movwf	fsr2l,c
  5464  0010D8  0E00               	movlw	high _ep_data_in
  5465  0010DA  20F4               	addwfc	prodh,w,c
  5466  0010DC  6EDA               	movwf	fsr2h,c
  5467  0010DE  0E00               	movlw	0
  5468  0010E0  6EDF               	movwf	indf2,c
  5469                           
  5470                           ;usb_device.c: 367: ep_data_out[i].Val = 0u;
  5471  0010E2  5009               	movf	i2USBDeviceInit@i,w,c
  5472  0010E4  0D01               	mullw	1
  5473  0010E6  0E77               	movlw	low _ep_data_out
  5474  0010E8  24F3               	addwf	prodl,w,c
  5475  0010EA  6ED9               	movwf	fsr2l,c
  5476  0010EC  0E00               	movlw	high _ep_data_out
  5477  0010EE  20F4               	addwfc	prodh,w,c
  5478  0010F0  6EDA               	movwf	fsr2h,c
  5479  0010F2  0E00               	movlw	0
  5480  0010F4  6EDF               	movwf	indf2,c
  5481  0010F6  2A09               	incf	i2USBDeviceInit@i,f,c
  5482  0010F8  D7CE               	goto	i2l3798
  5483  0010FA                     i2l3808:
  5484                           
  5485                           ;usb_device.c: 368: }
  5486                           ;usb_device.c: 371: pBDTEntryIn[0] = (volatile BDT_ENTRY*)&BDT[2];
  5487  0010FA  0E08               	movlw	8
  5488  0010FC  0100               	movlb	0	; () banked
  5489  0010FE  6F68               	movwf	_pBDTEntryIn& (0+255),b
  5490  001100  0E02               	movlw	2
  5491  001102  0100               	movlb	0	; () banked
  5492  001104  6F69               	movwf	(_pBDTEntryIn+1)& (0+255),b
  5493                           
  5494                           ; BSR set to: 0
  5495                           ;usb_device.c: 373: UEP0 = 0x06|0x10;
  5496  001106  0E16               	movlw	22
  5497  001108  010F               	movlb	15	; () banked
  5498  00110A  6F53               	movwf	83,b	;volatile
  5499                           
  5500                           ; BSR set to: 15
  5501                           ;usb_device.c: 375: BDT[0].ADR = ((uint16_t)(&SetupPkt));
  5502  00110C  0E02               	movlw	2
  5503  00110E  0102               	movlb	2	; () banked
  5504  001110  6F03               	movwf	3,b	;volatile
  5505  001112  0E30               	movlw	48
  5506  001114  6F02               	movwf	2,b	;volatile
  5507                           
  5508                           ; BSR set to: 2
  5509                           ;usb_device.c: 376: BDT[0].CNT = 8;
  5510  001116  0E08               	movlw	8
  5511  001118  0102               	movlb	2	; () banked
  5512  00111A  6F01               	movwf	1,b	;volatile
  5513                           
  5514                           ; BSR set to: 2
  5515                           ;usb_device.c: 377: BDT[0].STAT.Val = 0x00|0x04;
  5516  00111C  0E04               	movlw	4
  5517  00111E  0102               	movlb	2	; () banked
  5518  001120  6F00               	movwf	0,b	;volatile
  5519                           
  5520                           ; BSR set to: 2
  5521                           ;usb_device.c: 378: BDT[0].STAT.Val |= 0x80;
  5522  001122  0102               	movlb	2	; () banked
  5523  001124  8F00               	bsf	0,7,b	;volatile
  5524                           
  5525                           ; BSR set to: 2
  5526                           ;usb_device.c: 381: USBActiveConfiguration = 0;
  5527  001126  0E00               	movlw	0
  5528  001128  6E4F               	movwf	_USBActiveConfiguration,c	;volatile
  5529                           
  5530                           ; BSR set to: 2
  5531                           ;usb_device.c: 384: USBDeviceState = DETACHED_STATE;
  5532  00112A  0E00               	movlw	0
  5533  00112C  0100               	movlb	0	; () banked
  5534  00112E  6F86               	movwf	_USBDeviceState& (0+255),b	;volatile
  5535                           
  5536                           ; BSR set to: 0
  5537  001130  0012               	return		;funcret
  5538  001132                     __end_ofi2_USBDeviceInit:
  5539                           	opt stack 0
  5540                           pclatu	equ	0xFFB
  5541                           pclath	equ	0xFFA
  5542                           tblptru	equ	0xFF8
  5543                           tblptrh	equ	0xFF7
  5544                           tblptrl	equ	0xFF6
  5545                           tablat	equ	0xFF5
  5546                           prodh	equ	0xFF4
  5547                           prodl	equ	0xFF3
  5548                           intcon	equ	0xFF2
  5549                           postinc0	equ	0xFEE
  5550                           fsr0h	equ	0xFEA
  5551                           fsr0l	equ	0xFE9
  5552                           wreg	equ	0xFE8
  5553                           indf1	equ	0xFE7
  5554                           postdec1	equ	0xFE5
  5555                           fsr1h	equ	0xFE2
  5556                           fsr1l	equ	0xFE1
  5557                           indf2	equ	0xFDF
  5558                           postinc2	equ	0xFDE
  5559                           postdec2	equ	0xFDD
  5560                           plusw2	equ	0xFDB
  5561                           fsr2h	equ	0xFDA
  5562                           fsr2l	equ	0xFD9
  5563                           status	equ	0xFD8
  5564                           
  5565 ;; *************** function _USBWakeFromSuspend *****************
  5566 ;; Defined at:
  5567 ;;		line 2302 in file "../../mla/framework/usb/src/usb_device.c"
  5568 ;; Parameters:    Size  Location     Type
  5569 ;;		None
  5570 ;; Auto vars:     Size  Location     Type
  5571 ;;		None
  5572 ;; Return value:  Size  Location     Type
  5573 ;;                  1    wreg      void 
  5574 ;; Registers used:
  5575 ;;		wreg, fsr2l, fsr2h, status,2, status,0, tblptrl, tblptrh, tblptru, prodl, prodh, cstack
  5576 ;; Tracked objects:
  5577 ;;		On entry : 0/0
  5578 ;;		On exit  : 0/0
  5579 ;;		Unchanged: 0/0
  5580 ;; Data sizes:     COMRAM   BANK0   BANK1
  5581 ;;      Params:         0       0       0
  5582 ;;      Locals:         0       0       0
  5583 ;;      Temps:          0       0       0
  5584 ;;      Totals:         0       0       0
  5585 ;;Total ram usage:        0 bytes
  5586 ;; Hardware stack levels used:    1
  5587 ;; Hardware stack levels required when called:    4
  5588 ;; This function calls:
  5589 ;;		_USER_USB_CALLBACK_EVENT_HANDLER
  5590 ;; This function is called by:
  5591 ;;		_USBDeviceTasks
  5592 ;; This function uses a non-reentrant model
  5593 ;;
  5594                           
  5595                           	psect	text26
  5596  002152                     __ptext26:
  5597                           	opt stack 0
  5598  002152                     _USBWakeFromSuspend:
  5599                           	opt stack 21
  5600                           
  5601                           ;usb_device.c: 2304: USBBusIsSuspended = 0;
  5602                           
  5603                           ; BSR set to: 0
  5604                           ;incstack = 0
  5605  002152  0E00               	movlw	0
  5606  002154  6E45               	movwf	_USBBusIsSuspended,c	;volatile
  5607                           
  5608                           ;usb_device.c: 2310: USER_USB_CALLBACK_EVENT_HANDLER(EVENT_RESUME,0,0);
  5609  002156  0E00               	movlw	0
  5610  002158  6E0E               	movwf	USER_USB_CALLBACK_EVENT_HANDLER@event+1,c
  5611  00215A  0E74               	movlw	116
  5612  00215C  6E0D               	movwf	USER_USB_CALLBACK_EVENT_HANDLER@event,c
  5613  00215E  0E00               	movlw	0
  5614  002160  6E0F               	movwf	USER_USB_CALLBACK_EVENT_HANDLER@pdata,c
  5615  002162  0E00               	movlw	0
  5616  002164  6E10               	movwf	USER_USB_CALLBACK_EVENT_HANDLER@pdata+1,c
  5617  002166  0E00               	movlw	0
  5618  002168  6E12               	movwf	USER_USB_CALLBACK_EVENT_HANDLER@size+1,c
  5619  00216A  0E00               	movlw	0
  5620  00216C  6E11               	movwf	USER_USB_CALLBACK_EVENT_HANDLER@size,c
  5621  00216E  EC6A  F00F         	call	_USER_USB_CALLBACK_EVENT_HANDLER	;wreg free
  5622                           
  5623                           ;usb_device.c: 2317: UCONbits.SUSPND = 0;
  5624  002172  9264               	bcf	3940,1,c	;volatile
  5625                           
  5626                           ;usb_device.c: 2322: UIEbits.ACTVIE = 0;
  5627  002174  9460               	bcf	3936,2,c	;volatile
  5628                           
  5629                           ;usb_device.c: 2340: while(UIRbits.ACTVIF)
  5630  002176  D001               	goto	i2l3696
  5631  002178                     i2l3694:
  5632                           
  5633                           ;usb_device.c: 2342: {
  5634                           ;usb_device.c: 2343: (UIR &= 0xFB);
  5635  002178  9462               	bcf	3938,2,c	;volatile
  5636  00217A                     i2l3696:
  5637  00217A  A462               	btfss	3938,2,c	;volatile
  5638  00217C  0012               	return	
  5639  00217E  D7FC               	goto	i2l3694
  5640  002180                     __end_of_USBWakeFromSuspend:
  5641                           	opt stack 0
  5642                           pclatu	equ	0xFFB
  5643                           pclath	equ	0xFFA
  5644                           tblptru	equ	0xFF8
  5645                           tblptrh	equ	0xFF7
  5646                           tblptrl	equ	0xFF6
  5647                           tablat	equ	0xFF5
  5648                           prodh	equ	0xFF4
  5649                           prodl	equ	0xFF3
  5650                           intcon	equ	0xFF2
  5651                           postinc0	equ	0xFEE
  5652                           fsr0h	equ	0xFEA
  5653                           fsr0l	equ	0xFE9
  5654                           wreg	equ	0xFE8
  5655                           indf1	equ	0xFE7
  5656                           postdec1	equ	0xFE5
  5657                           fsr1h	equ	0xFE2
  5658                           fsr1l	equ	0xFE1
  5659                           indf2	equ	0xFDF
  5660                           postinc2	equ	0xFDE
  5661                           postdec2	equ	0xFDD
  5662                           plusw2	equ	0xFDB
  5663                           fsr2h	equ	0xFDA
  5664                           fsr2l	equ	0xFD9
  5665                           status	equ	0xFD8
  5666                           
  5667 ;; *************** function _USBSuspend *****************
  5668 ;; Defined at:
  5669 ;;		line 2245 in file "../../mla/framework/usb/src/usb_device.c"
  5670 ;; Parameters:    Size  Location     Type
  5671 ;;		None
  5672 ;; Auto vars:     Size  Location     Type
  5673 ;;		None
  5674 ;; Return value:  Size  Location     Type
  5675 ;;                  1    wreg      void 
  5676 ;; Registers used:
  5677 ;;		wreg, fsr2l, fsr2h, status,2, status,0, tblptrl, tblptrh, tblptru, prodl, prodh, cstack
  5678 ;; Tracked objects:
  5679 ;;		On entry : 0/0
  5680 ;;		On exit  : 0/0
  5681 ;;		Unchanged: 0/0
  5682 ;; Data sizes:     COMRAM   BANK0   BANK1
  5683 ;;      Params:         0       0       0
  5684 ;;      Locals:         0       0       0
  5685 ;;      Temps:          0       0       0
  5686 ;;      Totals:         0       0       0
  5687 ;;Total ram usage:        0 bytes
  5688 ;; Hardware stack levels used:    1
  5689 ;; Hardware stack levels required when called:    4
  5690 ;; This function calls:
  5691 ;;		_USER_USB_CALLBACK_EVENT_HANDLER
  5692 ;; This function is called by:
  5693 ;;		_USBDeviceTasks
  5694 ;; This function uses a non-reentrant model
  5695 ;;
  5696                           
  5697                           	psect	text27
  5698  0021AC                     __ptext27:
  5699                           	opt stack 0
  5700  0021AC                     _USBSuspend:
  5701                           	opt stack 21
  5702                           
  5703                           ;usb_device.c: 2270: UIEbits.ACTVIE = 1;
  5704                           
  5705                           ;incstack = 0
  5706  0021AC  8460               	bsf	3936,2,c	;volatile
  5707                           
  5708                           ;usb_device.c: 2271: (UIR &= 0xEF);
  5709  0021AE  9862               	bcf	3938,4,c	;volatile
  5710                           
  5711                           ;usb_device.c: 2274: UCONbits.SUSPND = 1;
  5712  0021B0  8264               	bsf	3940,1,c	;volatile
  5713                           
  5714                           ;usb_device.c: 2277: USBBusIsSuspended = 1;
  5715  0021B2  0E01               	movlw	1
  5716  0021B4  6E45               	movwf	_USBBusIsSuspended,c	;volatile
  5717                           
  5718                           ;usb_device.c: 2284: USER_USB_CALLBACK_EVENT_HANDLER(EVENT_SUSPEND,0,0);
  5719  0021B6  0E00               	movlw	0
  5720  0021B8  6E0E               	movwf	USER_USB_CALLBACK_EVENT_HANDLER@event+1,c
  5721  0021BA  0E75               	movlw	117
  5722  0021BC  6E0D               	movwf	USER_USB_CALLBACK_EVENT_HANDLER@event,c
  5723  0021BE  0E00               	movlw	0
  5724  0021C0  6E0F               	movwf	USER_USB_CALLBACK_EVENT_HANDLER@pdata,c
  5725  0021C2  0E00               	movlw	0
  5726  0021C4  6E10               	movwf	USER_USB_CALLBACK_EVENT_HANDLER@pdata+1,c
  5727  0021C6  0E00               	movlw	0
  5728  0021C8  6E12               	movwf	USER_USB_CALLBACK_EVENT_HANDLER@size+1,c
  5729  0021CA  0E00               	movlw	0
  5730  0021CC  6E11               	movwf	USER_USB_CALLBACK_EVENT_HANDLER@size,c
  5731  0021CE  EC6A  F00F         	call	_USER_USB_CALLBACK_EVENT_HANDLER	;wreg free
  5732  0021D2  0012               	return		;funcret
  5733  0021D4                     __end_of_USBSuspend:
  5734                           	opt stack 0
  5735                           pclatu	equ	0xFFB
  5736                           pclath	equ	0xFFA
  5737                           tblptru	equ	0xFF8
  5738                           tblptrh	equ	0xFF7
  5739                           tblptrl	equ	0xFF6
  5740                           tablat	equ	0xFF5
  5741                           prodh	equ	0xFF4
  5742                           prodl	equ	0xFF3
  5743                           intcon	equ	0xFF2
  5744                           postinc0	equ	0xFEE
  5745                           fsr0h	equ	0xFEA
  5746                           fsr0l	equ	0xFE9
  5747                           wreg	equ	0xFE8
  5748                           indf1	equ	0xFE7
  5749                           postdec1	equ	0xFE5
  5750                           fsr1h	equ	0xFE2
  5751                           fsr1l	equ	0xFE1
  5752                           indf2	equ	0xFDF
  5753                           postinc2	equ	0xFDE
  5754                           postdec2	equ	0xFDD
  5755                           plusw2	equ	0xFDB
  5756                           fsr2h	equ	0xFDA
  5757                           fsr2l	equ	0xFD9
  5758                           status	equ	0xFD8
  5759                           
  5760 ;; *************** function _USBStallHandler *****************
  5761 ;; Defined at:
  5762 ;;		line 2202 in file "../../mla/framework/usb/src/usb_device.c"
  5763 ;; Parameters:    Size  Location     Type
  5764 ;;		None
  5765 ;; Auto vars:     Size  Location     Type
  5766 ;;		None
  5767 ;; Return value:  Size  Location     Type
  5768 ;;                  1    wreg      void 
  5769 ;; Registers used:
  5770 ;;		wreg, fsr2l, fsr2h, status,2, status,0
  5771 ;; Tracked objects:
  5772 ;;		On entry : 0/0
  5773 ;;		On exit  : 0/0
  5774 ;;		Unchanged: 0/0
  5775 ;; Data sizes:     COMRAM   BANK0   BANK1
  5776 ;;      Params:         0       0       0
  5777 ;;      Locals:         0       0       0
  5778 ;;      Temps:          1       0       0
  5779 ;;      Totals:         1       0       0
  5780 ;;Total ram usage:        1 bytes
  5781 ;; Hardware stack levels used:    1
  5782 ;; This function calls:
  5783 ;;		Nothing
  5784 ;; This function is called by:
  5785 ;;		_USBDeviceTasks
  5786 ;; This function uses a non-reentrant model
  5787 ;;
  5788                           
  5789                           	psect	text28
  5790  002032                     __ptext28:
  5791                           	opt stack 0
  5792  002032                     _USBStallHandler:
  5793                           	opt stack 25
  5794                           
  5795                           ;usb_device.c: 2214: if(UEP0bits.EPSTALL == 1)
  5796                           
  5797                           ;incstack = 0
  5798  002032  010F               	movlb	15	; () banked
  5799  002034  A153               	btfss	83,0,b	;volatile
  5800  002036  D01E               	goto	i2l629
  5801                           
  5802                           ; BSR set to: 15
  5803                           ;usb_device.c: 2215: {
  5804                           ;usb_device.c: 2217: if((pBDTEntryEP0OutCurrent->STAT.Val == 0x80) && (pBDTEntryIn[0]->S
      +                          TAT.Val == (0x80|0x04)))
  5805  002038  C03B  FFD9         	movff	_pBDTEntryEP0OutCurrent,fsr2l
  5806  00203C  C03C  FFDA         	movff	_pBDTEntryEP0OutCurrent+1,fsr2h
  5807  002040  0E80               	movlw	128
  5808  002042  18DE               	xorwf	postinc2,w,c
  5809  002044  A4D8               	btfss	status,2,c
  5810  002046  D014               	goto	i2l3718
  5811                           
  5812                           ; BSR set to: 15
  5813  002048  C068  FFD9         	movff	_pBDTEntryIn,fsr2l
  5814  00204C  C069  FFDA         	movff	_pBDTEntryIn+1,fsr2h
  5815  002050  0E84               	movlw	132
  5816  002052  18DE               	xorwf	postinc2,w,c
  5817  002054  A4D8               	btfss	status,2,c
  5818  002056  D00C               	goto	i2l3718
  5819                           
  5820                           ; BSR set to: 15
  5821                           ;usb_device.c: 2218: {
  5822                           ;usb_device.c: 2220: pBDTEntryEP0OutCurrent->STAT.Val = 0x00|(0x08 & 0x08)|0x04;
  5823  002058  C03B  FFD9         	movff	_pBDTEntryEP0OutCurrent,fsr2l
  5824  00205C  C03C  FFDA         	movff	_pBDTEntryEP0OutCurrent+1,fsr2h
  5825  002060  0E0C               	movlw	12
  5826  002062  6EDF               	movwf	indf2,c
  5827                           
  5828                           ; BSR set to: 15
  5829                           ;usb_device.c: 2221: pBDTEntryEP0OutCurrent->STAT.Val |= 0x80;
  5830  002064  C03B  FFD9         	movff	_pBDTEntryEP0OutCurrent,fsr2l
  5831  002068  C03C  FFDA         	movff	_pBDTEntryEP0OutCurrent+1,fsr2h
  5832  00206C  0E00               	movlw	0
  5833  00206E  8EDB               	bsf	plusw2,7,c
  5834  002070                     i2l3718:
  5835                           
  5836                           ; BSR set to: 15
  5837                           ;usb_device.c: 2222: }
  5838                           ;usb_device.c: 2223: UEP0bits.EPSTALL = 0;
  5839  002070  010F               	movlb	15	; () banked
  5840  002072  9153               	bcf	83,0,b	;volatile
  5841  002074                     i2l629:
  5842                           
  5843                           ; BSR set to: 15
  5844                           ;usb_device.c: 2224: }
  5845                           ;usb_device.c: 2226: (UIR &= 0xDF);
  5846  002074  9A62               	bcf	3938,5,c	;volatile
  5847                           
  5848                           ; BSR set to: 15
  5849  002076  0012               	return		;funcret
  5850  002078                     __end_of_USBStallHandler:
  5851                           	opt stack 0
  5852                           pclatu	equ	0xFFB
  5853                           pclath	equ	0xFFA
  5854                           tblptru	equ	0xFF8
  5855                           tblptrh	equ	0xFF7
  5856                           tblptrl	equ	0xFF6
  5857                           tablat	equ	0xFF5
  5858                           prodh	equ	0xFF4
  5859                           prodl	equ	0xFF3
  5860                           intcon	equ	0xFF2
  5861                           postinc0	equ	0xFEE
  5862                           fsr0h	equ	0xFEA
  5863                           fsr0l	equ	0xFE9
  5864                           wreg	equ	0xFE8
  5865                           indf1	equ	0xFE7
  5866                           postdec1	equ	0xFE5
  5867                           fsr1h	equ	0xFE2
  5868                           fsr1l	equ	0xFE1
  5869                           indf2	equ	0xFDF
  5870                           postinc2	equ	0xFDE
  5871                           postdec2	equ	0xFDD
  5872                           plusw2	equ	0xFDB
  5873                           fsr2h	equ	0xFDA
  5874                           fsr2l	equ	0xFD9
  5875                           status	equ	0xFD8
  5876                           
  5877 ;; *************** function _USBCtrlEPService *****************
  5878 ;; Defined at:
  5879 ;;		line 2369 in file "../../mla/framework/usb/src/usb_device.c"
  5880 ;; Parameters:    Size  Location     Type
  5881 ;;		None
  5882 ;; Auto vars:     Size  Location     Type
  5883 ;;  setup_cnt       1   28[COMRAM] unsigned char 
  5884 ;; Return value:  Size  Location     Type
  5885 ;;                  1    wreg      void 
  5886 ;; Registers used:
  5887 ;;		wreg, fsr1l, fsr1h, fsr2l, fsr2h, status,2, status,0, tblptrl, tblptrh, tblptru, prodl, prodh, cstack
  5888 ;; Tracked objects:
  5889 ;;		On entry : 0/0
  5890 ;;		On exit  : 0/0
  5891 ;;		Unchanged: 0/0
  5892 ;; Data sizes:     COMRAM   BANK0   BANK1
  5893 ;;      Params:         0       0       0
  5894 ;;      Locals:         1       0       0
  5895 ;;      Temps:          2       0       0
  5896 ;;      Totals:         3       0       0
  5897 ;;Total ram usage:        3 bytes
  5898 ;; Hardware stack levels used:    1
  5899 ;; Hardware stack levels required when called:    7
  5900 ;; This function calls:
  5901 ;;		_USBCtrlTrfInHandler
  5902 ;;		_USBCtrlTrfOutHandler
  5903 ;;		_USBCtrlTrfSetupHandler
  5904 ;; This function is called by:
  5905 ;;		_USBDeviceTasks
  5906 ;; This function uses a non-reentrant model
  5907 ;;
  5908                           
  5909                           	psect	text29
  5910  001752                     __ptext29:
  5911                           	opt stack 0
  5912  001752                     _USBCtrlEPService:
  5913                           	opt stack 18
  5914                           
  5915                           ;usb_device.c: 2375: USBStatusStageTimeoutCounter = (uint8_t)45;
  5916                           
  5917                           ; BSR set to: 15
  5918                           ;incstack = 0
  5919  001752  0E2D               	movlw	45
  5920  001754  6E4B               	movwf	_USBStatusStageTimeoutCounter,c	;volatile
  5921                           
  5922                           ;usb_device.c: 2379: if((USTATcopy.Val & ~0x02) == 0x00)
  5923  001756  C051  F01B         	movff	_USTATcopy,??_USBCtrlEPService	;volatile
  5924  00175A  0EFD               	movlw	253
  5925  00175C  161B               	andwf	??_USBCtrlEPService,f,c
  5926  00175E  A4D8               	btfss	status,2,c
  5927  001760  D057               	goto	i2l3752
  5928                           
  5929                           ;usb_device.c: 2380: {
  5930                           ;usb_device.c: 2383: pBDTEntryEP0OutCurrent = (volatile BDT_ENTRY*)&BDT[(USTATcopy.Val &
      +                           0x7E)>>1];
  5931  001762  C051  F01B         	movff	_USTATcopy,??_USBCtrlEPService	;volatile
  5932  001766  90D8               	bcf	status,0,c
  5933  001768  321B               	rrcf	??_USBCtrlEPService,f,c
  5934  00176A  0E3F               	movlw	63
  5935  00176C  161B               	andwf	??_USBCtrlEPService,f,c
  5936  00176E  501B               	movf	??_USBCtrlEPService,w,c
  5937  001770  0D04               	mullw	4
  5938  001772  0E00               	movlw	0
  5939  001774  24F3               	addwf	prodl,w,c
  5940  001776  6E3B               	movwf	_pBDTEntryEP0OutCurrent,c
  5941  001778  0E02               	movlw	2
  5942  00177A  20F4               	addwfc	prodh,w,c
  5943  00177C  6E3C               	movwf	_pBDTEntryEP0OutCurrent+1,c
  5944                           
  5945                           ;usb_device.c: 2391: pBDTEntryEP0OutNext = pBDTEntryEP0OutCurrent;
  5946  00177E  C03B  F03D         	movff	_pBDTEntryEP0OutCurrent,_pBDTEntryEP0OutNext
  5947  001782  C03C  F03E         	movff	_pBDTEntryEP0OutCurrent+1,_pBDTEntryEP0OutNext+1
  5948                           
  5949                           ;usb_device.c: 2393: ((uint8_t_VAL*)&pBDTEntryEP0OutNext)->Val ^= 0x0004;
  5950  001786  0E04               	movlw	4
  5951  001788  1A3D               	xorwf	_pBDTEntryEP0OutNext,f,c
  5952                           
  5953                           ;usb_device.c: 2396: if(pBDTEntryEP0OutCurrent->STAT.PID == 0xD)
  5954  00178A  C03B  FFD9         	movff	_pBDTEntryEP0OutCurrent,fsr2l
  5955  00178E  C03C  FFDA         	movff	_pBDTEntryEP0OutCurrent+1,fsr2h
  5956  001792  30DF               	rrcf	indf2,w,c
  5957  001794  32E8               	rrcf	wreg,f,c
  5958  001796  0B0F               	andlw	15
  5959  001798  0A0D               	xorlw	13
  5960  00179A  A4D8               	btfss	status,2,c
  5961  00179C  D036               	goto	i2l3750
  5962                           
  5963                           ;usb_device.c: 2397: {
  5964                           ;usb_device.c: 2398: unsigned char setup_cnt;
  5965                           ;usb_device.c: 2404: for(setup_cnt = 0; setup_cnt < 8u; setup_cnt++)
  5966  00179E  0E00               	movlw	0
  5967  0017A0  6E1D               	movwf	USBCtrlEPService@setup_cnt,c
  5968  0017A2                     i2l3734:
  5969  0017A2  0E07               	movlw	7
  5970  0017A4  641D               	cpfsgt	USBCtrlEPService@setup_cnt,c
  5971  0017A6  D001               	goto	i2l3738
  5972  0017A8  D023               	goto	i2l3746
  5973  0017AA                     i2l3738:
  5974                           
  5975                           ;usb_device.c: 2405: {
  5976                           ;usb_device.c: 2406: *(uint8_t*)((uint8_t*)&SetupPkt + setup_cnt) = *(uint8_t*)((void *)
      +                          (pBDTEntryEP0OutCurrent->ADR));
  5977  0017AA  EE20 F002          	lfsr	2,2
  5978  0017AE  503B               	movf	_pBDTEntryEP0OutCurrent,w,c
  5979  0017B0  26D9               	addwf	fsr2l,f,c
  5980  0017B2  503C               	movf	_pBDTEntryEP0OutCurrent+1,w,c
  5981  0017B4  22DA               	addwfc	fsr2h,f,c
  5982  0017B6  CFDE F01B          	movff	postinc2,??_USBCtrlEPService
  5983  0017BA  CFDD F01C          	movff	postdec2,??_USBCtrlEPService+1
  5984  0017BE  C01B  FFD9         	movff	??_USBCtrlEPService,fsr2l
  5985  0017C2  C01C  FFDA         	movff	??_USBCtrlEPService+1,fsr2h
  5986  0017C6  501D               	movf	USBCtrlEPService@setup_cnt,w,c
  5987  0017C8  0D01               	mullw	1
  5988  0017CA  0E30               	movlw	48
  5989  0017CC  24F3               	addwf	prodl,w,c
  5990  0017CE  6EE1               	movwf	fsr1l,c
  5991  0017D0  0E02               	movlw	2
  5992  0017D2  20F4               	addwfc	prodh,w,c
  5993  0017D4  6EE2               	movwf	fsr1h,c
  5994  0017D6  CFDF FFE7          	movff	indf2,indf1
  5995                           
  5996                           ;usb_device.c: 2407: pBDTEntryEP0OutCurrent->ADR++;
  5997  0017DA  EE20 F002          	lfsr	2,2
  5998  0017DE  503B               	movf	_pBDTEntryEP0OutCurrent,w,c
  5999  0017E0  26D9               	addwf	fsr2l,f,c
  6000  0017E2  503C               	movf	_pBDTEntryEP0OutCurrent+1,w,c
  6001  0017E4  22DA               	addwfc	fsr2h,f,c
  6002  0017E6  2ADE               	incf	postinc2,f,c
  6003  0017E8  0E00               	movlw	0
  6004  0017EA  22DD               	addwfc	postdec2,f,c
  6005  0017EC  2A1D               	incf	USBCtrlEPService@setup_cnt,f,c
  6006  0017EE  D7D9               	goto	i2l3734
  6007  0017F0                     i2l3746:
  6008                           
  6009                           ;usb_device.c: 2408: }
  6010                           ;usb_device.c: 2409: pBDTEntryEP0OutCurrent->ADR = ((uint16_t)(&SetupPkt));
  6011  0017F0  EE20 F002          	lfsr	2,2
  6012  0017F4  503B               	movf	_pBDTEntryEP0OutCurrent,w,c
  6013  0017F6  26D9               	addwf	fsr2l,f,c
  6014  0017F8  503C               	movf	_pBDTEntryEP0OutCurrent+1,w,c
  6015  0017FA  22DA               	addwfc	fsr2h,f,c
  6016  0017FC  0E30               	movlw	48
  6017  0017FE  6EDE               	movwf	postinc2,c
  6018  001800  0E02               	movlw	2
  6019  001802  6EDD               	movwf	postdec2,c
  6020                           
  6021                           ;usb_device.c: 2412: USBCtrlTrfSetupHandler();
  6022  001804  ECEC  F00E         	call	_USBCtrlTrfSetupHandler	;wreg free
  6023                           
  6024                           ;usb_device.c: 2413: }
  6025  001808  0012               	return	
  6026  00180A                     i2l3750:
  6027                           
  6028                           ;usb_device.c: 2414: else
  6029                           ;usb_device.c: 2415: {
  6030                           ;usb_device.c: 2417: USBCtrlTrfOutHandler();
  6031  00180A  EC9A  F00F         	call	_USBCtrlTrfOutHandler	;wreg free
  6032                           
  6033                           ;usb_device.c: 2418: }
  6034                           ;usb_device.c: 2419: }
  6035  00180E  0012               	return	
  6036  001810                     i2l3752:
  6037                           
  6038                           ;usb_device.c: 2420: else if((USTATcopy.Val & ~0x02) == 0x04)
  6039  001810  5051               	movf	_USTATcopy,w,c	;volatile
  6040  001812  0BFD               	andlw	253
  6041  001814  0A04               	xorlw	4
  6042  001816  A4D8               	btfss	status,2,c
  6043  001818  0012               	return	
  6044                           
  6045                           ;usb_device.c: 2421: {
  6046                           ;usb_device.c: 2424: USBCtrlTrfInHandler();
  6047  00181A  EC76  F00C         	call	_USBCtrlTrfInHandler	;wreg free
  6048  00181E  0012               	return	
  6049  001820                     __end_of_USBCtrlEPService:
  6050                           	opt stack 0
  6051                           pclatu	equ	0xFFB
  6052                           pclath	equ	0xFFA
  6053                           tblptru	equ	0xFF8
  6054                           tblptrh	equ	0xFF7
  6055                           tblptrl	equ	0xFF6
  6056                           tablat	equ	0xFF5
  6057                           prodh	equ	0xFF4
  6058                           prodl	equ	0xFF3
  6059                           intcon	equ	0xFF2
  6060                           postinc0	equ	0xFEE
  6061                           fsr0h	equ	0xFEA
  6062                           fsr0l	equ	0xFE9
  6063                           wreg	equ	0xFE8
  6064                           indf1	equ	0xFE7
  6065                           postdec1	equ	0xFE5
  6066                           fsr1h	equ	0xFE2
  6067                           fsr1l	equ	0xFE1
  6068                           indf2	equ	0xFDF
  6069                           postinc2	equ	0xFDE
  6070                           postdec2	equ	0xFDD
  6071                           plusw2	equ	0xFDB
  6072                           fsr2h	equ	0xFDA
  6073                           fsr2l	equ	0xFD9
  6074                           status	equ	0xFD8
  6075                           
  6076 ;; *************** function _USBCtrlTrfSetupHandler *****************
  6077 ;; Defined at:
  6078 ;;		line 2469 in file "../../mla/framework/usb/src/usb_device.c"
  6079 ;; Parameters:    Size  Location     Type
  6080 ;;		None
  6081 ;; Auto vars:     Size  Location     Type
  6082 ;;		None
  6083 ;; Return value:  Size  Location     Type
  6084 ;;                  1    wreg      void 
  6085 ;; Registers used:
  6086 ;;		wreg, fsr1l, fsr1h, fsr2l, fsr2h, status,2, status,0, tblptrl, tblptrh, tblptru, prodl, prodh, cstack
  6087 ;; Tracked objects:
  6088 ;;		On entry : 0/0
  6089 ;;		On exit  : 0/0
  6090 ;;		Unchanged: 0/0
  6091 ;; Data sizes:     COMRAM   BANK0   BANK1
  6092 ;;      Params:         0       0       0
  6093 ;;      Locals:         0       0       0
  6094 ;;      Temps:          0       0       0
  6095 ;;      Totals:         0       0       0
  6096 ;;Total ram usage:        0 bytes
  6097 ;; Hardware stack levels used:    1
  6098 ;; Hardware stack levels required when called:    6
  6099 ;; This function calls:
  6100 ;;		_USBCheckStdRequest
  6101 ;;		_USBCtrlEPServiceComplete
  6102 ;;		_USER_USB_CALLBACK_EVENT_HANDLER
  6103 ;; This function is called by:
  6104 ;;		_USBCtrlEPService
  6105 ;; This function uses a non-reentrant model
  6106 ;;
  6107                           
  6108                           	psect	text30
  6109  001DD8                     __ptext30:
  6110                           	opt stack 0
  6111  001DD8                     _USBCtrlTrfSetupHandler:
  6112                           	opt stack 18
  6113                           
  6114                           ;usb_device.c: 2474: shortPacketStatus = 0;
  6115                           
  6116                           ;incstack = 0
  6117  001DD8  0E00               	movlw	0
  6118  001DDA  6E4E               	movwf	_shortPacketStatus,c	;volatile
  6119                           
  6120                           ;usb_device.c: 2475: USBDeferStatusStagePacket = 0;
  6121  001DDC  0E00               	movlw	0
  6122  001DDE  6E48               	movwf	_USBDeferStatusStagePacket,c	;volatile
  6123                           
  6124                           ;usb_device.c: 2476: USBDeferINDataStagePackets = 0;
  6125  001DE0  0E00               	movlw	0
  6126  001DE2  6E46               	movwf	_USBDeferINDataStagePackets,c	;volatile
  6127                           
  6128                           ;usb_device.c: 2477: USBDeferOUTDataStagePackets = 0;
  6129  001DE4  0E00               	movlw	0
  6130  001DE6  6E47               	movwf	_USBDeferOUTDataStagePackets,c	;volatile
  6131                           
  6132                           ;usb_device.c: 2478: BothEP0OutUOWNsSet = 0;
  6133  001DE8  0E00               	movlw	0
  6134  001DEA  6E41               	movwf	_BothEP0OutUOWNsSet,c	;volatile
  6135                           
  6136                           ;usb_device.c: 2479: controlTransferState = 0;
  6137  001DEC  0E00               	movlw	0
  6138  001DEE  6E4C               	movwf	_controlTransferState,c	;volatile
  6139                           
  6140                           ;usb_device.c: 2488: pBDTEntryIn[0]->STAT.Val &= ~(0x80);
  6141  001DF0  C068  FFD9         	movff	_pBDTEntryIn,fsr2l
  6142  001DF4  C069  FFDA         	movff	_pBDTEntryIn+1,fsr2h
  6143  001DF8  0E7F               	movlw	127
  6144  001DFA  16DF               	andwf	indf2,f,c
  6145                           
  6146                           ;usb_device.c: 2489: ((uint8_t_VAL*)&pBDTEntryIn[0])->Val ^= 0x0004;
  6147  001DFC  0E04               	movlw	4
  6148  001DFE  0100               	movlb	0	; () banked
  6149  001E00  1B68               	xorwf	_pBDTEntryIn& (0+255),f,b
  6150                           
  6151                           ; BSR set to: 0
  6152                           ;usb_device.c: 2490: pBDTEntryIn[0]->STAT.Val &= ~(0x80);
  6153  001E02  C068  FFD9         	movff	_pBDTEntryIn,fsr2l
  6154  001E06  C069  FFDA         	movff	_pBDTEntryIn+1,fsr2h
  6155  001E0A  0E7F               	movlw	127
  6156  001E0C  16DF               	andwf	indf2,f,c
  6157                           
  6158                           ; BSR set to: 0
  6159                           ;usb_device.c: 2491: ((uint8_t_VAL*)&pBDTEntryIn[0])->Val ^= 0x0004;
  6160  001E0E  0E04               	movlw	4
  6161  001E10  0100               	movlb	0	; () banked
  6162  001E12  1B68               	xorwf	_pBDTEntryIn& (0+255),f,b
  6163                           
  6164                           ; BSR set to: 0
  6165                           ;usb_device.c: 2492: pBDTEntryEP0OutNext->STAT.Val &= ~(0x80);
  6166  001E14  C03D  FFD9         	movff	_pBDTEntryEP0OutNext,fsr2l
  6167  001E18  C03E  FFDA         	movff	_pBDTEntryEP0OutNext+1,fsr2h
  6168  001E1C  0E7F               	movlw	127
  6169  001E1E  16DF               	andwf	indf2,f,c
  6170                           
  6171                           ; BSR set to: 0
  6172                           ;usb_device.c: 2494: inPipes[0].info.Val = 0;
  6173  001E20  0E00               	movlw	0
  6174  001E22  6E36               	movwf	_inPipes+3,c	;volatile
  6175                           
  6176                           ; BSR set to: 0
  6177                           ;usb_device.c: 2495: inPipes[0].wCount.Val = 0;
  6178  001E24  0E00               	movlw	0
  6179  001E26  6E38               	movwf	_inPipes+5,c	;volatile
  6180  001E28  0E00               	movlw	0
  6181  001E2A  6E37               	movwf	_inPipes+4,c	;volatile
  6182                           
  6183                           ; BSR set to: 0
  6184                           ;usb_device.c: 2496: outPipes[0].info.Val = 0;
  6185  001E2C  0E00               	movlw	0
  6186  001E2E  0100               	movlb	0	; () banked
  6187  001E30  6F63               	movwf	(_outPipes+3)& (0+255),b	;volatile
  6188                           
  6189                           ; BSR set to: 0
  6190                           ;usb_device.c: 2497: outPipes[0].wCount.Val = 0;
  6191  001E32  0E00               	movlw	0
  6192  001E34  0100               	movlb	0	; () banked
  6193  001E36  6F65               	movwf	(_outPipes+5)& (0+255),b	;volatile
  6194  001E38  0E00               	movlw	0
  6195  001E3A  6F64               	movwf	(_outPipes+4)& (0+255),b	;volatile
  6196                           
  6197                           ; BSR set to: 0
  6198                           ;usb_device.c: 2503: USBCheckStdRequest();
  6199  001E3C  EC3B  F00B         	call	_USBCheckStdRequest	;wreg free
  6200                           
  6201                           ;usb_device.c: 2504: USER_USB_CALLBACK_EVENT_HANDLER(EVENT_EP0_REQUEST,0,0);
  6202  001E40  0E00               	movlw	0
  6203  001E42  6E0E               	movwf	USER_USB_CALLBACK_EVENT_HANDLER@event+1,c
  6204  001E44  0E03               	movlw	3
  6205  001E46  6E0D               	movwf	USER_USB_CALLBACK_EVENT_HANDLER@event,c
  6206  001E48  0E00               	movlw	0
  6207  001E4A  6E0F               	movwf	USER_USB_CALLBACK_EVENT_HANDLER@pdata,c
  6208  001E4C  0E00               	movlw	0
  6209  001E4E  6E10               	movwf	USER_USB_CALLBACK_EVENT_HANDLER@pdata+1,c
  6210  001E50  0E00               	movlw	0
  6211  001E52  6E12               	movwf	USER_USB_CALLBACK_EVENT_HANDLER@size+1,c
  6212  001E54  0E00               	movlw	0
  6213  001E56  6E11               	movwf	USER_USB_CALLBACK_EVENT_HANDLER@size,c
  6214  001E58  EC6A  F00F         	call	_USER_USB_CALLBACK_EVENT_HANDLER	;wreg free
  6215                           
  6216                           ;usb_device.c: 2517: USBCtrlEPServiceComplete();
  6217  001E5C  EC50  F00A         	call	_USBCtrlEPServiceComplete	;wreg free
  6218  001E60  0012               	return		;funcret
  6219  001E62                     __end_of_USBCtrlTrfSetupHandler:
  6220                           	opt stack 0
  6221                           pclatu	equ	0xFFB
  6222                           pclath	equ	0xFFA
  6223                           tblptru	equ	0xFF8
  6224                           tblptrh	equ	0xFF7
  6225                           tblptrl	equ	0xFF6
  6226                           tablat	equ	0xFF5
  6227                           prodh	equ	0xFF4
  6228                           prodl	equ	0xFF3
  6229                           intcon	equ	0xFF2
  6230                           postinc0	equ	0xFEE
  6231                           fsr0h	equ	0xFEA
  6232                           fsr0l	equ	0xFE9
  6233                           wreg	equ	0xFE8
  6234                           indf1	equ	0xFE7
  6235                           postdec1	equ	0xFE5
  6236                           fsr1h	equ	0xFE2
  6237                           fsr1l	equ	0xFE1
  6238                           indf2	equ	0xFDF
  6239                           postinc2	equ	0xFDE
  6240                           postdec2	equ	0xFDD
  6241                           plusw2	equ	0xFDB
  6242                           fsr2h	equ	0xFDA
  6243                           fsr2l	equ	0xFD9
  6244                           status	equ	0xFD8
  6245                           
  6246 ;; *************** function _USBCtrlEPServiceComplete *****************
  6247 ;; Defined at:
  6248 ;;		line 1616 in file "../../mla/framework/usb/src/usb_device.c"
  6249 ;; Parameters:    Size  Location     Type
  6250 ;;		None
  6251 ;; Auto vars:     Size  Location     Type
  6252 ;;		None
  6253 ;; Return value:  Size  Location     Type
  6254 ;;                  1    wreg      void 
  6255 ;; Registers used:
  6256 ;;		wreg, fsr1l, fsr1h, fsr2l, fsr2h, status,2, status,0, tblptrl, tblptrh, tblptru, cstack
  6257 ;; Tracked objects:
  6258 ;;		On entry : 0/0
  6259 ;;		On exit  : 0/0
  6260 ;;		Unchanged: 0/0
  6261 ;; Data sizes:     COMRAM   BANK0   BANK1
  6262 ;;      Params:         0       0       0
  6263 ;;      Locals:         0       0       0
  6264 ;;      Temps:          0       0       0
  6265 ;;      Totals:         0       0       0
  6266 ;;Total ram usage:        0 bytes
  6267 ;; Hardware stack levels used:    1
  6268 ;; Hardware stack levels required when called:    2
  6269 ;; This function calls:
  6270 ;;		_USBCtrlEPAllowDataStage
  6271 ;;		_USBCtrlEPAllowStatusStage
  6272 ;; This function is called by:
  6273 ;;		_USBCtrlTrfSetupHandler
  6274 ;; This function uses a non-reentrant model
  6275 ;;
  6276                           
  6277                           	psect	text31
  6278  0014A0                     __ptext31:
  6279                           	opt stack 0
  6280  0014A0                     _USBCtrlEPServiceComplete:
  6281                           	opt stack 21
  6282                           
  6283                           ;usb_device.c: 1622: UCONbits.PKTDIS = 0;
  6284                           
  6285                           ;incstack = 0
  6286  0014A0  9864               	bcf	3940,4,c	;volatile
  6287                           
  6288                           ;usb_device.c: 1628: if(inPipes[0].info.bits.busy == 0)
  6289  0014A2  BE36               	btfsc	_inPipes+3,7,c	;volatile
  6290  0014A4  D039               	goto	i2l553
  6291                           
  6292                           ;usb_device.c: 1629: {
  6293                           ;usb_device.c: 1630: if(outPipes[0].info.bits.busy == 1)
  6294  0014A6  0100               	movlb	0	; () banked
  6295  0014A8  AF63               	btfss	(_outPipes+3)& (0+255),7,b	;volatile
  6296  0014AA  D00B               	goto	i2l3292
  6297                           
  6298                           ; BSR set to: 0
  6299                           ;usb_device.c: 1631: {
  6300                           ;usb_device.c: 1632: controlTransferState = 2;
  6301  0014AC  0E02               	movlw	2
  6302  0014AE  6E4C               	movwf	_controlTransferState,c	;volatile
  6303                           
  6304                           ;usb_device.c: 1643: if(USBDeferOUTDataStagePackets == 0)
  6305  0014B0  5047               	movf	_USBDeferOUTDataStagePackets,w,c	;volatile
  6306  0014B2  B4D8               	btfsc	status,2,c
  6307                           
  6308                           ; BSR set to: 0
  6309                           ;usb_device.c: 1644: {
  6310                           ;usb_device.c: 1645: USBCtrlEPAllowDataStage();
  6311  0014B4  EC55  F00E         	call	_USBCtrlEPAllowDataStage	;wreg free
  6312                           
  6313                           ;usb_device.c: 1646: }
  6314                           ;usb_device.c: 1650: USBStatusStageEnabledFlag2 = 0;
  6315  0014B8  0E00               	movlw	0
  6316  0014BA  6E4A               	movwf	_USBStatusStageEnabledFlag2,c	;volatile
  6317                           
  6318                           ;usb_device.c: 1651: USBStatusStageEnabledFlag1 = 0;
  6319  0014BC  0E00               	movlw	0
  6320  0014BE  6E49               	movwf	_USBStatusStageEnabledFlag1,c	;volatile
  6321                           
  6322                           ;usb_device.c: 1652: }
  6323  0014C0  0012               	return	
  6324  0014C2                     i2l3292:
  6325                           
  6326                           ;usb_device.c: 1653: else
  6327                           ;usb_device.c: 1654: {
  6328                           ;usb_device.c: 1659: pBDTEntryEP0OutNext->CNT = 8;
  6329  0014C2  EE20 F001          	lfsr	2,1
  6330  0014C6  503D               	movf	_pBDTEntryEP0OutNext,w,c
  6331  0014C8  26D9               	addwf	fsr2l,f,c
  6332  0014CA  503E               	movf	_pBDTEntryEP0OutNext+1,w,c
  6333  0014CC  22DA               	addwfc	fsr2h,f,c
  6334  0014CE  0E08               	movlw	8
  6335  0014D0  6EDF               	movwf	indf2,c
  6336                           
  6337                           ;usb_device.c: 1660: pBDTEntryEP0OutNext->ADR = ((uint16_t)(&SetupPkt));
  6338  0014D2  EE20 F002          	lfsr	2,2
  6339  0014D6  503D               	movf	_pBDTEntryEP0OutNext,w,c
  6340  0014D8  26D9               	addwf	fsr2l,f,c
  6341  0014DA  503E               	movf	_pBDTEntryEP0OutNext+1,w,c
  6342  0014DC  22DA               	addwfc	fsr2h,f,c
  6343  0014DE  0E30               	movlw	48
  6344  0014E0  6EDE               	movwf	postinc2,c
  6345  0014E2  0E02               	movlw	2
  6346  0014E4  6EDD               	movwf	postdec2,c
  6347                           
  6348                           ;usb_device.c: 1661: pBDTEntryEP0OutNext->STAT.Val = 0x00|(0x08 & 0x08)|0x04;
  6349  0014E6  C03D  FFD9         	movff	_pBDTEntryEP0OutNext,fsr2l
  6350  0014EA  C03E  FFDA         	movff	_pBDTEntryEP0OutNext+1,fsr2h
  6351  0014EE  0E0C               	movlw	12
  6352  0014F0  6EDF               	movwf	indf2,c
  6353                           
  6354                           ;usb_device.c: 1662: pBDTEntryEP0OutNext->STAT.Val |= 0x80;
  6355  0014F2  C03D  FFD9         	movff	_pBDTEntryEP0OutNext,fsr2l
  6356  0014F6  C03E  FFDA         	movff	_pBDTEntryEP0OutNext+1,fsr2h
  6357  0014FA  0E00               	movlw	0
  6358  0014FC  8EDB               	bsf	plusw2,7,c
  6359                           
  6360                           ;usb_device.c: 1663: pBDTEntryIn[0]->STAT.Val = 0x04;
  6361  0014FE  C068  FFD9         	movff	_pBDTEntryIn,fsr2l
  6362  001502  C069  FFDA         	movff	_pBDTEntryIn+1,fsr2h
  6363  001506  0E04               	movlw	4
  6364  001508  6EDF               	movwf	indf2,c
  6365                           
  6366                           ;usb_device.c: 1664: pBDTEntryIn[0]->STAT.Val |= 0x80;
  6367  00150A  C068  FFD9         	movff	_pBDTEntryIn,fsr2l
  6368  00150E  C069  FFDA         	movff	_pBDTEntryIn+1,fsr2h
  6369  001512  0E00               	movlw	0
  6370  001514  8EDB               	bsf	plusw2,7,c
  6371                           
  6372                           ;usb_device.c: 1665: }
  6373                           ;usb_device.c: 1666: }
  6374  001516  0012               	return	
  6375  001518                     i2l553:
  6376                           
  6377                           ;usb_device.c: 1667: else
  6378                           ;usb_device.c: 1668: {
  6379                           ;usb_device.c: 1669: if(SetupPkt.DataDir == (0x80>>7))
  6380  001518  0102               	movlb	2	; () banked
  6381  00151A  AF30               	btfss	48,7,b	;volatile
  6382  00151C  D010               	goto	i2l3312
  6383                           
  6384                           ; BSR set to: 2
  6385                           ;usb_device.c: 1670: {
  6386                           ;usb_device.c: 1671: controlTransferState = 1;
  6387  00151E  0E01               	movlw	1
  6388  001520  6E4C               	movwf	_controlTransferState,c	;volatile
  6389                           
  6390                           ;usb_device.c: 1685: if(USBDeferINDataStagePackets == 0)
  6391  001522  5046               	movf	_USBDeferINDataStagePackets,w,c	;volatile
  6392  001524  B4D8               	btfsc	status,2,c
  6393                           
  6394                           ; BSR set to: 2
  6395                           ;usb_device.c: 1686: {
  6396                           ;usb_device.c: 1687: USBCtrlEPAllowDataStage();
  6397  001526  EC55  F00E         	call	_USBCtrlEPAllowDataStage	;wreg free
  6398                           
  6399                           ;usb_device.c: 1688: }
  6400                           ;usb_device.c: 1710: USBStatusStageEnabledFlag2 = 0;
  6401  00152A  0E00               	movlw	0
  6402  00152C  6E4A               	movwf	_USBStatusStageEnabledFlag2,c	;volatile
  6403                           
  6404                           ;usb_device.c: 1711: USBStatusStageEnabledFlag1 = 0;
  6405  00152E  0E00               	movlw	0
  6406  001530  6E49               	movwf	_USBStatusStageEnabledFlag1,c	;volatile
  6407                           
  6408                           ;usb_device.c: 1712: if(USBDeferStatusStagePacket == 0)
  6409  001532  5048               	movf	_USBDeferStatusStagePacket,w,c	;volatile
  6410  001534  A4D8               	btfss	status,2,c
  6411  001536  0012               	return	
  6412                           
  6413                           ;usb_device.c: 1713: {
  6414                           ;usb_device.c: 1714: USBCtrlEPAllowStatusStage();
  6415  001538  EC3F  F00D         	call	_USBCtrlEPAllowStatusStage	;wreg free
  6416                           
  6417                           ;usb_device.c: 1715: }
  6418                           ;usb_device.c: 1716: }
  6419  00153C  0012               	return	
  6420  00153E                     i2l3312:
  6421                           
  6422                           ;usb_device.c: 1717: else
  6423                           ;usb_device.c: 1718: {
  6424                           ;usb_device.c: 1729: controlTransferState = 2;
  6425  00153E  0E02               	movlw	2
  6426  001540  6E4C               	movwf	_controlTransferState,c	;volatile
  6427                           
  6428                           ;usb_device.c: 1732: pBDTEntryEP0OutNext->CNT = 8;
  6429  001542  EE20 F001          	lfsr	2,1
  6430  001546  503D               	movf	_pBDTEntryEP0OutNext,w,c
  6431  001548  26D9               	addwf	fsr2l,f,c
  6432  00154A  503E               	movf	_pBDTEntryEP0OutNext+1,w,c
  6433  00154C  22DA               	addwfc	fsr2h,f,c
  6434  00154E  0E08               	movlw	8
  6435  001550  6EDF               	movwf	indf2,c
  6436                           
  6437                           ;usb_device.c: 1733: pBDTEntryEP0OutNext->ADR = ((uint16_t)(&SetupPkt));
  6438  001552  EE20 F002          	lfsr	2,2
  6439  001556  503D               	movf	_pBDTEntryEP0OutNext,w,c
  6440  001558  26D9               	addwf	fsr2l,f,c
  6441  00155A  503E               	movf	_pBDTEntryEP0OutNext+1,w,c
  6442  00155C  22DA               	addwfc	fsr2h,f,c
  6443  00155E  0E30               	movlw	48
  6444  001560  6EDE               	movwf	postinc2,c
  6445  001562  0E02               	movlw	2
  6446  001564  6EDD               	movwf	postdec2,c
  6447                           
  6448                           ;usb_device.c: 1734: pBDTEntryEP0OutNext->STAT.Val = 0x04;
  6449  001566  C03D  FFD9         	movff	_pBDTEntryEP0OutNext,fsr2l
  6450  00156A  C03E  FFDA         	movff	_pBDTEntryEP0OutNext+1,fsr2h
  6451  00156E  0E04               	movlw	4
  6452  001570  6EDF               	movwf	indf2,c
  6453                           
  6454                           ;usb_device.c: 1735: pBDTEntryEP0OutNext->STAT.Val |= 0x80;
  6455  001572  C03D  FFD9         	movff	_pBDTEntryEP0OutNext,fsr2l
  6456  001576  C03E  FFDA         	movff	_pBDTEntryEP0OutNext+1,fsr2h
  6457  00157A  0E00               	movlw	0
  6458  00157C  8EDB               	bsf	plusw2,7,c
  6459                           
  6460                           ;usb_device.c: 1738: USBStatusStageEnabledFlag2 = 0;
  6461  00157E  0E00               	movlw	0
  6462  001580  6E4A               	movwf	_USBStatusStageEnabledFlag2,c	;volatile
  6463                           
  6464                           ;usb_device.c: 1739: USBStatusStageEnabledFlag1 = 0;
  6465  001582  0E00               	movlw	0
  6466  001584  6E49               	movwf	_USBStatusStageEnabledFlag1,c	;volatile
  6467                           
  6468                           ;usb_device.c: 1740: if(USBDeferStatusStagePacket == 0)
  6469  001586  5048               	movf	_USBDeferStatusStagePacket,w,c	;volatile
  6470  001588  A4D8               	btfss	status,2,c
  6471  00158A  0012               	return	
  6472                           
  6473                           ;usb_device.c: 1741: {
  6474                           ;usb_device.c: 1742: USBCtrlEPAllowStatusStage();
  6475  00158C  EC3F  F00D         	call	_USBCtrlEPAllowStatusStage	;wreg free
  6476  001590  0012               	return	
  6477  001592                     __end_of_USBCtrlEPServiceComplete:
  6478                           	opt stack 0
  6479                           pclatu	equ	0xFFB
  6480                           pclath	equ	0xFFA
  6481                           tblptru	equ	0xFF8
  6482                           tblptrh	equ	0xFF7
  6483                           tblptrl	equ	0xFF6
  6484                           tablat	equ	0xFF5
  6485                           prodh	equ	0xFF4
  6486                           prodl	equ	0xFF3
  6487                           intcon	equ	0xFF2
  6488                           postinc0	equ	0xFEE
  6489                           fsr0h	equ	0xFEA
  6490                           fsr0l	equ	0xFE9
  6491                           wreg	equ	0xFE8
  6492                           indf1	equ	0xFE7
  6493                           postdec1	equ	0xFE5
  6494                           fsr1h	equ	0xFE2
  6495                           fsr1l	equ	0xFE1
  6496                           indf2	equ	0xFDF
  6497                           postinc2	equ	0xFDE
  6498                           postdec2	equ	0xFDD
  6499                           plusw2	equ	0xFDB
  6500                           fsr2h	equ	0xFDA
  6501                           fsr2l	equ	0xFD9
  6502                           status	equ	0xFD8
  6503                           
  6504 ;; *************** function _USBCtrlEPAllowDataStage *****************
  6505 ;; Defined at:
  6506 ;;		line 1488 in file "../../mla/framework/usb/src/usb_device.c"
  6507 ;; Parameters:    Size  Location     Type
  6508 ;;		None
  6509 ;; Auto vars:     Size  Location     Type
  6510 ;;		None
  6511 ;; Return value:  Size  Location     Type
  6512 ;;                  1    wreg      void 
  6513 ;; Registers used:
  6514 ;;		wreg, fsr1l, fsr1h, fsr2l, fsr2h, status,2, status,0, tblptrl, tblptrh, tblptru, cstack
  6515 ;; Tracked objects:
  6516 ;;		On entry : 0/0
  6517 ;;		On exit  : 0/0
  6518 ;;		Unchanged: 0/0
  6519 ;; Data sizes:     COMRAM   BANK0   BANK1
  6520 ;;      Params:         0       0       0
  6521 ;;      Locals:         0       0       0
  6522 ;;      Temps:          0       0       0
  6523 ;;      Totals:         0       0       0
  6524 ;;Total ram usage:        0 bytes
  6525 ;; Hardware stack levels used:    1
  6526 ;; Hardware stack levels required when called:    1
  6527 ;; This function calls:
  6528 ;;		_USBCtrlTrfTxService
  6529 ;; This function is called by:
  6530 ;;		_USBCtrlEPServiceComplete
  6531 ;; This function uses a non-reentrant model
  6532 ;;
  6533                           
  6534                           	psect	text32
  6535  001CAA                     __ptext32:
  6536                           	opt stack 0
  6537  001CAA                     _USBCtrlEPAllowDataStage:
  6538                           	opt stack 21
  6539                           
  6540                           ;usb_device.c: 1490: USBDeferINDataStagePackets = 0;
  6541                           
  6542                           ;incstack = 0
  6543  001CAA  0E00               	movlw	0
  6544  001CAC  6E46               	movwf	_USBDeferINDataStagePackets,c	;volatile
  6545                           
  6546                           ;usb_device.c: 1491: USBDeferOUTDataStagePackets = 0;
  6547  001CAE  0E00               	movlw	0
  6548  001CB0  6E47               	movwf	_USBDeferOUTDataStagePackets,c	;volatile
  6549                           
  6550                           ;usb_device.c: 1493: if(controlTransferState == 2)
  6551  001CB2  0E02               	movlw	2
  6552  001CB4  184C               	xorwf	_controlTransferState,w,c	;volatile
  6553  001CB6  A4D8               	btfss	status,2,c
  6554  001CB8  D01F               	goto	i2l3086
  6555                           
  6556                           ;usb_device.c: 1494: {
  6557                           ;usb_device.c: 1496: pBDTEntryEP0OutNext->CNT = 8;
  6558  001CBA  EE20 F001          	lfsr	2,1
  6559  001CBE  503D               	movf	_pBDTEntryEP0OutNext,w,c
  6560  001CC0  26D9               	addwf	fsr2l,f,c
  6561  001CC2  503E               	movf	_pBDTEntryEP0OutNext+1,w,c
  6562  001CC4  22DA               	addwfc	fsr2h,f,c
  6563  001CC6  0E08               	movlw	8
  6564  001CC8  6EDF               	movwf	indf2,c
  6565                           
  6566                           ;usb_device.c: 1497: pBDTEntryEP0OutNext->ADR = ((uint16_t)(&CtrlTrfData));
  6567  001CCA  EE20 F002          	lfsr	2,2
  6568  001CCE  503D               	movf	_pBDTEntryEP0OutNext,w,c
  6569  001CD0  26D9               	addwf	fsr2l,f,c
  6570  001CD2  503E               	movf	_pBDTEntryEP0OutNext+1,w,c
  6571  001CD4  22DA               	addwfc	fsr2h,f,c
  6572  001CD6  0E38               	movlw	56
  6573  001CD8  6EDE               	movwf	postinc2,c
  6574  001CDA  0E02               	movlw	2
  6575  001CDC  6EDD               	movwf	postdec2,c
  6576                           
  6577                           ;usb_device.c: 1498: pBDTEntryEP0OutNext->STAT.Val = 0x40|(0x08 & 0x08);
  6578  001CDE  C03D  FFD9         	movff	_pBDTEntryEP0OutNext,fsr2l
  6579  001CE2  C03E  FFDA         	movff	_pBDTEntryEP0OutNext+1,fsr2h
  6580  001CE6  0E48               	movlw	72
  6581  001CE8  6EDF               	movwf	indf2,c
  6582                           
  6583                           ;usb_device.c: 1499: pBDTEntryEP0OutNext->STAT.Val |= 0x80;
  6584  001CEA  C03D  FFD9         	movff	_pBDTEntryEP0OutNext,fsr2l
  6585  001CEE  C03E  FFDA         	movff	_pBDTEntryEP0OutNext+1,fsr2h
  6586  001CF2  0E00               	movlw	0
  6587  001CF4  8EDB               	bsf	plusw2,7,c
  6588                           
  6589                           ;usb_device.c: 1500: }
  6590  001CF6  0012               	return	
  6591  001CF8                     i2l3086:
  6592                           
  6593                           ;usb_device.c: 1501: else
  6594                           ;usb_device.c: 1502: {
  6595                           ;usb_device.c: 1505: if(SetupPkt.wLength < inPipes[0].wCount.Val)
  6596  001CF8  5037               	movf	_inPipes+4,w,c	;volatile
  6597  001CFA  0102               	movlb	2	; () banked
  6598  001CFC  5D36               	subwf	54,w,b	;volatile
  6599  001CFE  5038               	movf	_inPipes+5,w,c	;volatile
  6600  001D00  0102               	movlb	2	; () banked
  6601  001D02  5937               	subwfb	55,w,b	;volatile
  6602  001D04  B0D8               	btfsc	status,0,c
  6603  001D06  D004               	goto	i2l3090
  6604                           
  6605                           ; BSR set to: 2
  6606                           ;usb_device.c: 1506: {
  6607                           ;usb_device.c: 1507: inPipes[0].wCount.Val = SetupPkt.wLength;
  6608  001D08  C236 F037          	movff	566,_inPipes+4	;volatile
  6609  001D0C  C237 F038          	movff	567,_inPipes+5	;volatile
  6610  001D10                     i2l3090:
  6611                           
  6612                           ; BSR set to: 2
  6613                           ;usb_device.c: 1508: }
  6614                           ;usb_device.c: 1509: USBCtrlTrfTxService();
  6615  001D10  ECDB  F00C         	call	_USBCtrlTrfTxService	;wreg free
  6616                           
  6617                           ;usb_device.c: 1514: pBDTEntryIn[0]->ADR = ((uint16_t)(&CtrlTrfData));
  6618  001D14  0100               	movlb	0	; () banked
  6619  001D16  EE20 F002          	lfsr	2,2
  6620  001D1A  5168               	movf	_pBDTEntryIn& (0+255),w,b
  6621  001D1C  26D9               	addwf	fsr2l,f,c
  6622  001D1E  5169               	movf	(_pBDTEntryIn+1)& (0+255),w,b
  6623  001D20  22DA               	addwfc	fsr2h,f,c
  6624  001D22  0E38               	movlw	56
  6625  001D24  6EDE               	movwf	postinc2,c
  6626  001D26  0E02               	movlw	2
  6627  001D28  6EDD               	movwf	postdec2,c
  6628                           
  6629                           ; BSR set to: 0
  6630                           ;usb_device.c: 1515: pBDTEntryIn[0]->STAT.Val = 0x40|(0x08 & 0x08);
  6631  001D2A  C068  FFD9         	movff	_pBDTEntryIn,fsr2l
  6632  001D2E  C069  FFDA         	movff	_pBDTEntryIn+1,fsr2h
  6633  001D32  0E48               	movlw	72
  6634  001D34  6EDF               	movwf	indf2,c
  6635                           
  6636                           ; BSR set to: 0
  6637                           ;usb_device.c: 1516: pBDTEntryIn[0]->STAT.Val |= 0x80;
  6638  001D36  C068  FFD9         	movff	_pBDTEntryIn,fsr2l
  6639  001D3A  C069  FFDA         	movff	_pBDTEntryIn+1,fsr2h
  6640  001D3E  0E00               	movlw	0
  6641  001D40  8EDB               	bsf	plusw2,7,c
  6642  001D42  0012               	return	
  6643  001D44                     __end_of_USBCtrlEPAllowDataStage:
  6644                           	opt stack 0
  6645                           pclatu	equ	0xFFB
  6646                           pclath	equ	0xFFA
  6647                           tblptru	equ	0xFF8
  6648                           tblptrh	equ	0xFF7
  6649                           tblptrl	equ	0xFF6
  6650                           tablat	equ	0xFF5
  6651                           prodh	equ	0xFF4
  6652                           prodl	equ	0xFF3
  6653                           intcon	equ	0xFF2
  6654                           postinc0	equ	0xFEE
  6655                           fsr0h	equ	0xFEA
  6656                           fsr0l	equ	0xFE9
  6657                           wreg	equ	0xFE8
  6658                           indf1	equ	0xFE7
  6659                           postdec1	equ	0xFE5
  6660                           fsr1h	equ	0xFE2
  6661                           fsr1l	equ	0xFE1
  6662                           indf2	equ	0xFDF
  6663                           postinc2	equ	0xFDE
  6664                           postdec2	equ	0xFDD
  6665                           plusw2	equ	0xFDB
  6666                           fsr2h	equ	0xFDA
  6667                           fsr2l	equ	0xFD9
  6668                           status	equ	0xFD8
  6669                           
  6670 ;; *************** function _USBCheckStdRequest *****************
  6671 ;; Defined at:
  6672 ;;		line 2689 in file "../../mla/framework/usb/src/usb_device.c"
  6673 ;; Parameters:    Size  Location     Type
  6674 ;;		None
  6675 ;; Auto vars:     Size  Location     Type
  6676 ;;		None
  6677 ;; Return value:  Size  Location     Type
  6678 ;;                  1    wreg      void 
  6679 ;; Registers used:
  6680 ;;		wreg, fsr1l, fsr1h, fsr2l, fsr2h, status,2, status,0, tblptrl, tblptrh, tblptru, prodl, prodh, cstack
  6681 ;; Tracked objects:
  6682 ;;		On entry : 0/0
  6683 ;;		On exit  : 0/0
  6684 ;;		Unchanged: 0/0
  6685 ;; Data sizes:     COMRAM   BANK0   BANK1
  6686 ;;      Params:         0       0       0
  6687 ;;      Locals:         0       0       0
  6688 ;;      Temps:          0       0       0
  6689 ;;      Totals:         0       0       0
  6690 ;;Total ram usage:        0 bytes
  6691 ;; Hardware stack levels used:    1
  6692 ;; Hardware stack levels required when called:    5
  6693 ;; This function calls:
  6694 ;;		_USBStdFeatureReqHandler
  6695 ;;		_USBStdGetDscHandler
  6696 ;;		_USBStdGetStatusHandler
  6697 ;;		_USBStdSetCfgHandler
  6698 ;;		_USER_USB_CALLBACK_EVENT_HANDLER
  6699 ;; This function is called by:
  6700 ;;		_USBCtrlTrfSetupHandler
  6701 ;; This function uses a non-reentrant model
  6702 ;;
  6703                           
  6704                           	psect	text33
  6705  001676                     __ptext33:
  6706                           	opt stack 0
  6707  001676                     _USBCheckStdRequest:
  6708                           	opt stack 18
  6709                           
  6710                           ;usb_device.c: 2691: if(SetupPkt.RequestType != (0x00>>5)) return;
  6711                           
  6712                           ;incstack = 0
  6713  001676  0102               	movlb	2	; () banked
  6714  001678  3930               	swapf	48,w,b	;volatile
  6715  00167A  32E8               	rrcf	wreg,f,c
  6716  00167C  0B03               	andlw	3
  6717  00167E  0900               	iorlw	0
  6718  001680  A4D8               	btfss	status,2,c
  6719  001682  0012               	return	
  6720  001684  D044               	goto	i2l3410
  6721  001686                     i2l680:
  6722                           
  6723                           ; BSR set to: 2
  6724                           ;usb_device.c: 2696: inPipes[0].info.bits.busy = 1;
  6725  001686  8E36               	bsf	_inPipes+3,7,c	;volatile
  6726                           
  6727                           ; BSR set to: 2
  6728                           ;usb_device.c: 2697: USBDeviceState = ADR_PENDING_STATE;
  6729  001688  0E08               	movlw	8
  6730  00168A  0100               	movlb	0	; () banked
  6731  00168C  6F86               	movwf	_USBDeviceState& (0+255),b	;volatile
  6732                           
  6733                           ;usb_device.c: 2699: break;
  6734  00168E  0012               	return	
  6735  001690                     i2l3380:
  6736                           
  6737                           ;usb_device.c: 2701: USBStdGetDscHandler();
  6738  001690  EC34  F009         	call	_USBStdGetDscHandler	;wreg free
  6739                           
  6740                           ;usb_device.c: 2702: break;
  6741  001694  0012               	return	
  6742  001696                     i2l3382:
  6743                           
  6744                           ;usb_device.c: 2704: USBStdSetCfgHandler();
  6745  001696  ECC9  F00A         	call	_USBStdSetCfgHandler	;wreg free
  6746                           
  6747                           ;usb_device.c: 2705: break;
  6748  00169A  0012               	return	
  6749  00169C                     i2l3384:
  6750                           
  6751                           ;usb_device.c: 2707: inPipes[0].pSrc.bRam = (uint8_t*)&USBActiveConfiguration;
  6752  00169C  0E4F               	movlw	low _USBActiveConfiguration
  6753  00169E  6E33               	movwf	_inPipes,c	;volatile
  6754  0016A0  0E00               	movlw	high _USBActiveConfiguration
  6755  0016A2  6E34               	movwf	_inPipes+1,c	;volatile
  6756                           
  6757                           ;usb_device.c: 2708: inPipes[0].info.bits.ctrl_trf_mem = 0x01;
  6758  0016A4  8036               	bsf	_inPipes+3,0,c	;volatile
  6759                           
  6760                           ;usb_device.c: 2709: inPipes[0].wCount.v[0] = 1;
  6761  0016A6  0E01               	movlw	1
  6762  0016A8  6E37               	movwf	_inPipes+4,c	;volatile
  6763                           
  6764                           ;usb_device.c: 2710: inPipes[0].info.bits.busy = 1;
  6765  0016AA  8E36               	bsf	_inPipes+3,7,c	;volatile
  6766                           
  6767                           ;usb_device.c: 2711: break;
  6768  0016AC  0012               	return	
  6769  0016AE                     i2l3392:
  6770                           
  6771                           ;usb_device.c: 2713: USBStdGetStatusHandler();
  6772  0016AE  EC00  F00E         	call	_USBStdGetStatusHandler	;wreg free
  6773                           
  6774                           ;usb_device.c: 2714: break;
  6775  0016B2  0012               	return	
  6776  0016B4                     i2l3394:
  6777                           
  6778                           ;usb_device.c: 2716: case 3:
  6779                           ;usb_device.c: 2717: USBStdFeatureReqHandler();
  6780  0016B4  EC0D  F006         	call	_USBStdFeatureReqHandler	;wreg free
  6781                           
  6782                           ;usb_device.c: 2718: break;
  6783  0016B8  0012               	return	
  6784  0016BA                     i2l3396:
  6785                           
  6786                           ;usb_device.c: 2720: inPipes[0].pSrc.bRam = (uint8_t*)&USBAlternateInterface[SetupPkt.bI
      +                          ntfID];
  6787  0016BA  0102               	movlb	2	; () banked
  6788  0016BC  5134               	movf	52,w,b	;volatile
  6789  0016BE  0D01               	mullw	1
  6790  0016C0  0E50               	movlw	low _USBAlternateInterface
  6791  0016C2  24F3               	addwf	prodl,w,c
  6792  0016C4  6E33               	movwf	_inPipes,c	;volatile
  6793  0016C6  0E00               	movlw	high _USBAlternateInterface
  6794  0016C8  20F4               	addwfc	prodh,w,c
  6795  0016CA  6E34               	movwf	_inPipes+1,c	;volatile
  6796                           
  6797                           ; BSR set to: 2
  6798                           ;usb_device.c: 2721: inPipes[0].info.bits.ctrl_trf_mem = 0x01;
  6799  0016CC  8036               	bsf	_inPipes+3,0,c	;volatile
  6800                           
  6801                           ; BSR set to: 2
  6802                           ;usb_device.c: 2722: inPipes[0].wCount.v[0] = 1;
  6803  0016CE  0E01               	movlw	1
  6804  0016D0  6E37               	movwf	_inPipes+4,c	;volatile
  6805                           
  6806                           ; BSR set to: 2
  6807                           ;usb_device.c: 2723: inPipes[0].info.bits.busy = 1;
  6808  0016D2  8E36               	bsf	_inPipes+3,7,c	;volatile
  6809                           
  6810                           ;usb_device.c: 2724: break;
  6811  0016D4  0012               	return	
  6812  0016D6                     i2l689:
  6813                           
  6814                           ; BSR set to: 2
  6815                           ;usb_device.c: 2726: inPipes[0].info.bits.busy = 1;
  6816  0016D6  8E36               	bsf	_inPipes+3,7,c	;volatile
  6817                           
  6818                           ; BSR set to: 2
  6819                           ;usb_device.c: 2727: USBAlternateInterface[SetupPkt.bIntfID] = SetupPkt.bAltID;
  6820  0016D8  0102               	movlb	2	; () banked
  6821  0016DA  5134               	movf	52,w,b	;volatile
  6822  0016DC  0D01               	mullw	1
  6823  0016DE  0E50               	movlw	low _USBAlternateInterface
  6824  0016E0  24F3               	addwf	prodl,w,c
  6825  0016E2  6ED9               	movwf	fsr2l,c
  6826  0016E4  0E00               	movlw	high _USBAlternateInterface
  6827  0016E6  20F4               	addwfc	prodh,w,c
  6828  0016E8  6EDA               	movwf	fsr2h,c
  6829  0016EA  C232 FFDF          	movff	562,indf2	;volatile
  6830                           
  6831                           ;usb_device.c: 2728: break;
  6832  0016EE  0012               	return	
  6833  0016F0                     i2l3406:
  6834                           
  6835                           ; BSR set to: 2
  6836                           ;usb_device.c: 2730: USER_USB_CALLBACK_EVENT_HANDLER(EVENT_SET_DESCRIPTOR,0,0);
  6837  0016F0  0E00               	movlw	0
  6838  0016F2  6E0E               	movwf	USER_USB_CALLBACK_EVENT_HANDLER@event+1,c
  6839  0016F4  0E02               	movlw	2
  6840  0016F6  6E0D               	movwf	USER_USB_CALLBACK_EVENT_HANDLER@event,c
  6841  0016F8  0E00               	movlw	0
  6842  0016FA  6E0F               	movwf	USER_USB_CALLBACK_EVENT_HANDLER@pdata,c
  6843  0016FC  0E00               	movlw	0
  6844  0016FE  6E10               	movwf	USER_USB_CALLBACK_EVENT_HANDLER@pdata+1,c
  6845  001700  0E00               	movlw	0
  6846  001702  6E12               	movwf	USER_USB_CALLBACK_EVENT_HANDLER@size+1,c
  6847  001704  0E00               	movlw	0
  6848  001706  6E11               	movwf	USER_USB_CALLBACK_EVENT_HANDLER@size,c
  6849  001708  EC6A  F00F         	call	_USER_USB_CALLBACK_EVENT_HANDLER	;wreg free
  6850                           
  6851                           ;usb_device.c: 2735: }
  6852                           
  6853                           ;usb_device.c: 2734: break;
  6854                           
  6855                           ;usb_device.c: 2733: default:
  6856                           
  6857                           ;usb_device.c: 2732: case 12:
  6858                           
  6859                           ;usb_device.c: 2731: break;
  6860  00170C  0012               	return	
  6861  00170E                     i2l3410:
  6862  00170E  0102               	movlb	2	; () banked
  6863  001710  5131               	movf	49,w,b	;volatile
  6864                           
  6865                           ; Switch size 1, requested type "space"
  6866                           ; Number of cases is 11, Range of values is 0 to 12
  6867                           ; switch strategies available:
  6868                           ; Name         Instructions Cycles
  6869                           ; simple_byte           34    18 (average)
  6870                           ;	Chosen strategy is simple_byte
  6871  001712  0A00               	xorlw	0	; case 0
  6872  001714  B4D8               	btfsc	status,2,c
  6873  001716  D7CB               	goto	i2l3392
  6874  001718  0A01               	xorlw	1	; case 1
  6875  00171A  B4D8               	btfsc	status,2,c
  6876  00171C  D7CB               	goto	i2l3394
  6877  00171E  0A02               	xorlw	2	; case 3
  6878  001720  B4D8               	btfsc	status,2,c
  6879  001722  D7C8               	goto	i2l3394
  6880  001724  0A06               	xorlw	6	; case 5
  6881  001726  B4D8               	btfsc	status,2,c
  6882  001728  D7AE               	goto	i2l680
  6883  00172A  0A03               	xorlw	3	; case 6
  6884  00172C  B4D8               	btfsc	status,2,c
  6885  00172E  D7B0               	goto	i2l3380
  6886  001730  0A01               	xorlw	1	; case 7
  6887  001732  B4D8               	btfsc	status,2,c
  6888  001734  D7DD               	goto	i2l3406
  6889  001736  0A0F               	xorlw	15	; case 8
  6890  001738  B4D8               	btfsc	status,2,c
  6891  00173A  D7B0               	goto	i2l3384
  6892  00173C  0A01               	xorlw	1	; case 9
  6893  00173E  B4D8               	btfsc	status,2,c
  6894  001740  D7AA               	goto	i2l3382
  6895  001742  0A03               	xorlw	3	; case 10
  6896  001744  B4D8               	btfsc	status,2,c
  6897  001746  D7B9               	goto	i2l3396
  6898  001748  0A01               	xorlw	1	; case 11
  6899  00174A  B4D8               	btfsc	status,2,c
  6900  00174C  D7C4               	goto	i2l689
  6901  00174E  0A07               	xorlw	7	; case 12
  6902  001750  0012               	return	
  6903  001752                     __end_of_USBCheckStdRequest:
  6904                           	opt stack 0
  6905                           pclatu	equ	0xFFB
  6906                           pclath	equ	0xFFA
  6907                           tblptru	equ	0xFF8
  6908                           tblptrh	equ	0xFF7
  6909                           tblptrl	equ	0xFF6
  6910                           tablat	equ	0xFF5
  6911                           prodh	equ	0xFF4
  6912                           prodl	equ	0xFF3
  6913                           intcon	equ	0xFF2
  6914                           postinc0	equ	0xFEE
  6915                           fsr0h	equ	0xFEA
  6916                           fsr0l	equ	0xFE9
  6917                           wreg	equ	0xFE8
  6918                           indf1	equ	0xFE7
  6919                           postdec1	equ	0xFE5
  6920                           fsr1h	equ	0xFE2
  6921                           fsr1l	equ	0xFE1
  6922                           indf2	equ	0xFDF
  6923                           postinc2	equ	0xFDE
  6924                           postdec2	equ	0xFDD
  6925                           plusw2	equ	0xFDB
  6926                           fsr2h	equ	0xFDA
  6927                           fsr2l	equ	0xFD9
  6928                           status	equ	0xFD8
  6929                           
  6930 ;; *************** function _USBStdSetCfgHandler *****************
  6931 ;; Defined at:
  6932 ;;		line 1968 in file "../../mla/framework/usb/src/usb_device.c"
  6933 ;; Parameters:    Size  Location     Type
  6934 ;;		None
  6935 ;; Auto vars:     Size  Location     Type
  6936 ;;  i               1   20[COMRAM] unsigned char 
  6937 ;; Return value:  Size  Location     Type
  6938 ;;                  1    wreg      void 
  6939 ;; Registers used:
  6940 ;;		wreg, fsr2l, fsr2h, status,2, status,0, tblptrl, tblptrh, tblptru, prodl, prodh, cstack
  6941 ;; Tracked objects:
  6942 ;;		On entry : 0/0
  6943 ;;		On exit  : 0/0
  6944 ;;		Unchanged: 0/0
  6945 ;; Data sizes:     COMRAM   BANK0   BANK1
  6946 ;;      Params:         0       0       0
  6947 ;;      Locals:         1       0       0
  6948 ;;      Temps:          0       0       0
  6949 ;;      Totals:         1       0       0
  6950 ;;Total ram usage:        1 bytes
  6951 ;; Hardware stack levels used:    1
  6952 ;; Hardware stack levels required when called:    4
  6953 ;; This function calls:
  6954 ;;		_USER_USB_CALLBACK_EVENT_HANDLER
  6955 ;;		i2_memset
  6956 ;; This function is called by:
  6957 ;;		_USBCheckStdRequest
  6958 ;; This function uses a non-reentrant model
  6959 ;;
  6960                           
  6961                           	psect	text34
  6962  001592                     __ptext34:
  6963                           	opt stack 0
  6964  001592                     _USBStdSetCfgHandler:
  6965                           	opt stack 18
  6966                           
  6967                           ;usb_device.c: 1970: uint8_t i;
  6968                           ;usb_device.c: 1973: inPipes[0].info.bits.busy = 1;
  6969                           
  6970                           ;incstack = 0
  6971  001592  8E36               	bsf	_inPipes+3,7,c	;volatile
  6972                           
  6973                           ;usb_device.c: 1976: memset((void*)&UEP1,0x00,(2));;
  6974  001594  0E54               	movlw	84
  6975  001596  6E01               	movwf	i2memset@p1,c
  6976  001598  0E0F               	movlw	15
  6977  00159A  6E02               	movwf	i2memset@p1+1,c
  6978  00159C  0E00               	movlw	0
  6979  00159E  6E04               	movwf	i2memset@c+1,c
  6980  0015A0  0E00               	movlw	0
  6981  0015A2  6E03               	movwf	i2memset@c,c
  6982  0015A4  0E00               	movlw	0
  6983  0015A6  6E06               	movwf	i2memset@n+1,c
  6984  0015A8  0E02               	movlw	2
  6985  0015AA  6E05               	movwf	i2memset@n,c
  6986  0015AC  ECC0  F010         	call	i2_memset	;wreg free
  6987                           
  6988                           ;usb_device.c: 1979: memset((void*)&BDT[0], 0x00, sizeof(BDT));
  6989  0015B0  0E00               	movlw	0
  6990  0015B2  6E01               	movwf	i2memset@p1,c
  6991  0015B4  0E02               	movlw	2
  6992  0015B6  6E02               	movwf	i2memset@p1+1,c
  6993  0015B8  0E00               	movlw	0
  6994  0015BA  6E04               	movwf	i2memset@c+1,c
  6995  0015BC  0E00               	movlw	0
  6996  0015BE  6E03               	movwf	i2memset@c,c
  6997  0015C0  0E00               	movlw	0
  6998  0015C2  6E06               	movwf	i2memset@n+1,c
  6999  0015C4  0E30               	movlw	48
  7000  0015C6  6E05               	movwf	i2memset@n,c
  7001  0015C8  ECC0  F010         	call	i2_memset	;wreg free
  7002                           
  7003                           ;usb_device.c: 1982: UCONbits.PPBRST = 1;
  7004  0015CC  8C64               	bsf	3940,6,c	;volatile
  7005                           
  7006                           ;usb_device.c: 1987: for(i = 0; i < (uint8_t)(2+1u); i++)
  7007  0015CE  0E00               	movlw	0
  7008  0015D0  6E15               	movwf	USBStdSetCfgHandler@i,c
  7009  0015D2                     i2l3106:
  7010  0015D2  0E02               	movlw	2
  7011  0015D4  6415               	cpfsgt	USBStdSetCfgHandler@i,c
  7012  0015D6  D001               	goto	i2l3110
  7013  0015D8  D016               	goto	i2l3116
  7014  0015DA                     i2l3110:
  7015                           
  7016                           ;usb_device.c: 1988: {
  7017                           ;usb_device.c: 1989: ep_data_in[i].Val = 0u;
  7018  0015DA  5015               	movf	USBStdSetCfgHandler@i,w,c
  7019  0015DC  0D01               	mullw	1
  7020  0015DE  0E74               	movlw	low _ep_data_in
  7021  0015E0  24F3               	addwf	prodl,w,c
  7022  0015E2  6ED9               	movwf	fsr2l,c
  7023  0015E4  0E00               	movlw	high _ep_data_in
  7024  0015E6  20F4               	addwfc	prodh,w,c
  7025  0015E8  6EDA               	movwf	fsr2h,c
  7026  0015EA  0E00               	movlw	0
  7027  0015EC  6EDF               	movwf	indf2,c
  7028                           
  7029                           ;usb_device.c: 1990: ep_data_out[i].Val = 0u;
  7030  0015EE  5015               	movf	USBStdSetCfgHandler@i,w,c
  7031  0015F0  0D01               	mullw	1
  7032  0015F2  0E77               	movlw	low _ep_data_out
  7033  0015F4  24F3               	addwf	prodl,w,c
  7034  0015F6  6ED9               	movwf	fsr2l,c
  7035  0015F8  0E00               	movlw	high _ep_data_out
  7036  0015FA  20F4               	addwfc	prodh,w,c
  7037  0015FC  6EDA               	movwf	fsr2h,c
  7038  0015FE  0E00               	movlw	0
  7039  001600  6EDF               	movwf	indf2,c
  7040  001602  2A15               	incf	USBStdSetCfgHandler@i,f,c
  7041  001604  D7E6               	goto	i2l3106
  7042  001606                     i2l3116:
  7043                           
  7044                           ;usb_device.c: 1991: }
  7045                           ;usb_device.c: 1994: memset((void*)&USBAlternateInterface,0x00,1);
  7046  001606  0E50               	movlw	low _USBAlternateInterface
  7047  001608  6E01               	movwf	i2memset@p1,c
  7048  00160A  0E00               	movlw	high _USBAlternateInterface
  7049  00160C  6E02               	movwf	i2memset@p1+1,c
  7050  00160E  0E00               	movlw	0
  7051  001610  6E04               	movwf	i2memset@c+1,c
  7052  001612  0E00               	movlw	0
  7053  001614  6E03               	movwf	i2memset@c,c
  7054  001616  0E00               	movlw	0
  7055  001618  6E06               	movwf	i2memset@n+1,c
  7056  00161A  0E01               	movlw	1
  7057  00161C  6E05               	movwf	i2memset@n,c
  7058  00161E  ECC0  F010         	call	i2_memset	;wreg free
  7059                           
  7060                           ;usb_device.c: 1997: UCONbits.PPBRST = 0;
  7061  001622  9C64               	bcf	3940,6,c	;volatile
  7062                           
  7063                           ;usb_device.c: 1999: pBDTEntryIn[0] = (volatile BDT_ENTRY*)&BDT[2];
  7064  001624  0E08               	movlw	8
  7065  001626  0100               	movlb	0	; () banked
  7066  001628  6F68               	movwf	_pBDTEntryIn& (0+255),b
  7067  00162A  0E02               	movlw	2
  7068  00162C  0100               	movlb	0	; () banked
  7069  00162E  6F69               	movwf	(_pBDTEntryIn+1)& (0+255),b
  7070                           
  7071                           ; BSR set to: 0
  7072                           ;usb_device.c: 2002: pBDTEntryEP0OutCurrent = (volatile BDT_ENTRY*)&BDT[0];
  7073  001630  0E00               	movlw	0
  7074  001632  6E3B               	movwf	_pBDTEntryEP0OutCurrent,c
  7075  001634  0E02               	movlw	2
  7076  001636  6E3C               	movwf	_pBDTEntryEP0OutCurrent+1,c
  7077                           
  7078                           ; BSR set to: 0
  7079                           ;usb_device.c: 2003: pBDTEntryEP0OutNext = pBDTEntryEP0OutCurrent;
  7080  001638  C03B  F03D         	movff	_pBDTEntryEP0OutCurrent,_pBDTEntryEP0OutNext
  7081  00163C  C03C  F03E         	movff	_pBDTEntryEP0OutCurrent+1,_pBDTEntryEP0OutNext+1
  7082                           
  7083                           ; BSR set to: 0
  7084                           ;usb_device.c: 2006: USBActiveConfiguration = SetupPkt.bConfigurationValue;
  7085  001640  C232 F04F          	movff	562,_USBActiveConfiguration	;volatile
  7086                           
  7087                           ; BSR set to: 0
  7088                           ;usb_device.c: 2009: if(USBActiveConfiguration == 0)
  7089  001644  504F               	movf	_USBActiveConfiguration,w,c	;volatile
  7090  001646  A4D8               	btfss	status,2,c
  7091  001648  D004               	goto	i2l3132
  7092                           
  7093                           ; BSR set to: 0
  7094                           ;usb_device.c: 2010: {
  7095                           ;usb_device.c: 2012: USBDeviceState = ADDRESS_STATE;
  7096  00164A  0E10               	movlw	16
  7097  00164C  0100               	movlb	0	; () banked
  7098  00164E  6F86               	movwf	_USBDeviceState& (0+255),b	;volatile
  7099                           
  7100                           ;usb_device.c: 2013: }
  7101  001650  0012               	return	
  7102  001652                     i2l3132:
  7103                           
  7104                           ; BSR set to: 0
  7105                           ;usb_device.c: 2014: else
  7106                           ;usb_device.c: 2015: {
  7107                           ;usb_device.c: 2017: USER_USB_CALLBACK_EVENT_HANDLER(EVENT_CONFIGURED,(void*)&USBActiveC
      +                          onfiguration,1);
  7108  001652  0E00               	movlw	0
  7109  001654  6E0E               	movwf	USER_USB_CALLBACK_EVENT_HANDLER@event+1,c
  7110  001656  0E01               	movlw	1
  7111  001658  6E0D               	movwf	USER_USB_CALLBACK_EVENT_HANDLER@event,c
  7112  00165A  0E4F               	movlw	low _USBActiveConfiguration
  7113  00165C  6E0F               	movwf	USER_USB_CALLBACK_EVENT_HANDLER@pdata,c
  7114  00165E  0E00               	movlw	high _USBActiveConfiguration
  7115  001660  6E10               	movwf	USER_USB_CALLBACK_EVENT_HANDLER@pdata+1,c
  7116  001662  0E00               	movlw	0
  7117  001664  6E12               	movwf	USER_USB_CALLBACK_EVENT_HANDLER@size+1,c
  7118  001666  0E01               	movlw	1
  7119  001668  6E11               	movwf	USER_USB_CALLBACK_EVENT_HANDLER@size,c
  7120  00166A  EC6A  F00F         	call	_USER_USB_CALLBACK_EVENT_HANDLER	;wreg free
  7121                           
  7122                           ;usb_device.c: 2022: USBDeviceState = CONFIGURED_STATE;
  7123  00166E  0E20               	movlw	32
  7124  001670  0100               	movlb	0	; () banked
  7125  001672  6F86               	movwf	_USBDeviceState& (0+255),b	;volatile
  7126  001674  0012               	return	
  7127  001676                     __end_of_USBStdSetCfgHandler:
  7128                           	opt stack 0
  7129                           pclatu	equ	0xFFB
  7130                           pclath	equ	0xFFA
  7131                           tblptru	equ	0xFF8
  7132                           tblptrh	equ	0xFF7
  7133                           tblptrl	equ	0xFF6
  7134                           tablat	equ	0xFF5
  7135                           prodh	equ	0xFF4
  7136                           prodl	equ	0xFF3
  7137                           intcon	equ	0xFF2
  7138                           postinc0	equ	0xFEE
  7139                           fsr0h	equ	0xFEA
  7140                           fsr0l	equ	0xFE9
  7141                           wreg	equ	0xFE8
  7142                           indf1	equ	0xFE7
  7143                           postdec1	equ	0xFE5
  7144                           fsr1h	equ	0xFE2
  7145                           fsr1l	equ	0xFE1
  7146                           indf2	equ	0xFDF
  7147                           postinc2	equ	0xFDE
  7148                           postdec2	equ	0xFDD
  7149                           plusw2	equ	0xFDB
  7150                           fsr2h	equ	0xFDA
  7151                           fsr2l	equ	0xFD9
  7152                           status	equ	0xFD8
  7153                           
  7154 ;; *************** function i2_memset *****************
  7155 ;; Defined at:
  7156 ;;		line 8 in file "/Applications/microchip/xc8/v1.38/sources/common/memset.c"
  7157 ;; Parameters:    Size  Location     Type
  7158 ;;  p1              2    0[COMRAM] PTR void 
  7159 ;;		 -> USBAlternateInterface(1), BDT(48), UEP1(1), 
  7160 ;;  c               2    2[COMRAM] int 
  7161 ;;  n               2    4[COMRAM] unsigned int 
  7162 ;; Auto vars:     Size  Location     Type
  7163 ;;  memset          2    6[COMRAM] PTR unsigned char 
  7164 ;;		 -> USBAlternateInterface(1), BDT(48), UEP1(1), 
  7165 ;; Return value:  Size  Location     Type
  7166 ;;                  2    0[COMRAM] PTR void 
  7167 ;; Registers used:
  7168 ;;		wreg, fsr2l, fsr2h, status,2, status,0
  7169 ;; Tracked objects:
  7170 ;;		On entry : 0/0
  7171 ;;		On exit  : 0/0
  7172 ;;		Unchanged: 0/0
  7173 ;; Data sizes:     COMRAM   BANK0   BANK1
  7174 ;;      Params:         6       0       0
  7175 ;;      Locals:         2       0       0
  7176 ;;      Temps:          0       0       0
  7177 ;;      Totals:         8       0       0
  7178 ;;Total ram usage:        8 bytes
  7179 ;; Hardware stack levels used:    1
  7180 ;; This function calls:
  7181 ;;		Nothing
  7182 ;; This function is called by:
  7183 ;;		_USBStdSetCfgHandler
  7184 ;;		i2_USBDeviceInit
  7185 ;; This function uses a non-reentrant model
  7186 ;;
  7187                           
  7188                           	psect	text35
  7189  002180                     __ptext35:
  7190                           	opt stack 0
  7191  002180                     i2_memset:
  7192                           	opt stack 24
  7193                           
  7194                           ; BSR set to: 0
  7195                           ;incstack = 0
  7196  002180  C001  F007         	movff	i2memset@p1,i2memset@p
  7197  002184  C002  F008         	movff	i2memset@p1+1,i2memset@p+1
  7198  002188  D008               	goto	i2l3040
  7199  00218A                     i2l3036:
  7200  00218A  C007  FFD9         	movff	i2memset@p,fsr2l
  7201  00218E  C008  FFDA         	movff	i2memset@p+1,fsr2h
  7202  002192  C003  FFDF         	movff	i2memset@c,indf2
  7203  002196  4A07               	infsnz	i2memset@p,f,c
  7204  002198  2A08               	incf	i2memset@p+1,f,c
  7205  00219A                     i2l3040:
  7206  00219A  0605               	decf	i2memset@n,f,c
  7207  00219C  A0D8               	btfss	status,0,c
  7208  00219E  0606               	decf	i2memset@n+1,f,c
  7209  0021A0  2805               	incf	i2memset@n,w,c
  7210  0021A2  E1F3               	bnz	i2l3036
  7211  0021A4  2806               	incf	i2memset@n+1,w,c
  7212  0021A6  B4D8               	btfsc	status,2,c
  7213  0021A8  0012               	return	
  7214  0021AA  D7EF               	goto	i2l3036
  7215  0021AC                     __end_ofi2_memset:
  7216                           	opt stack 0
  7217                           pclatu	equ	0xFFB
  7218                           pclath	equ	0xFFA
  7219                           tblptru	equ	0xFF8
  7220                           tblptrh	equ	0xFF7
  7221                           tblptrl	equ	0xFF6
  7222                           tablat	equ	0xFF5
  7223                           prodh	equ	0xFF4
  7224                           prodl	equ	0xFF3
  7225                           intcon	equ	0xFF2
  7226                           postinc0	equ	0xFEE
  7227                           fsr0h	equ	0xFEA
  7228                           fsr0l	equ	0xFE9
  7229                           wreg	equ	0xFE8
  7230                           indf1	equ	0xFE7
  7231                           postdec1	equ	0xFE5
  7232                           fsr1h	equ	0xFE2
  7233                           fsr1l	equ	0xFE1
  7234                           indf2	equ	0xFDF
  7235                           postinc2	equ	0xFDE
  7236                           postdec2	equ	0xFDD
  7237                           plusw2	equ	0xFDB
  7238                           fsr2h	equ	0xFDA
  7239                           fsr2l	equ	0xFD9
  7240                           status	equ	0xFD8
  7241                           
  7242 ;; *************** function _USBStdGetStatusHandler *****************
  7243 ;; Defined at:
  7244 ;;		line 2129 in file "../../mla/framework/usb/src/usb_device.c"
  7245 ;; Parameters:    Size  Location     Type
  7246 ;;		None
  7247 ;; Auto vars:     Size  Location     Type
  7248 ;;  p               2    1[COMRAM] PTR struct __BDT
  7249 ;;		 -> BDT(48), NULL(0), 
  7250 ;; Return value:  Size  Location     Type
  7251 ;;                  1    wreg      void 
  7252 ;; Registers used:
  7253 ;;		wreg, fsr2l, fsr2h, status,2, status,0, prodl, prodh
  7254 ;; Tracked objects:
  7255 ;;		On entry : 0/0
  7256 ;;		On exit  : 0/0
  7257 ;;		Unchanged: 0/0
  7258 ;; Data sizes:     COMRAM   BANK0   BANK1
  7259 ;;      Params:         0       0       0
  7260 ;;      Locals:         2       0       0
  7261 ;;      Temps:          1       0       0
  7262 ;;      Totals:         3       0       0
  7263 ;;Total ram usage:        3 bytes
  7264 ;; Hardware stack levels used:    1
  7265 ;; This function calls:
  7266 ;;		Nothing
  7267 ;; This function is called by:
  7268 ;;		_USBCheckStdRequest
  7269 ;; This function uses a non-reentrant model
  7270 ;;
  7271                           
  7272                           	psect	text36
  7273  001C00                     __ptext36:
  7274                           	opt stack 0
  7275  001C00                     _USBStdGetStatusHandler:
  7276                           	opt stack 22
  7277                           
  7278                           ;usb_device.c: 2131: CtrlTrfData[0] = 0;
  7279                           
  7280                           ;incstack = 0
  7281  001C00  0E00               	movlw	0
  7282  001C02  0102               	movlb	2	; () banked
  7283  001C04  6F38               	movwf	56,b	;volatile
  7284                           
  7285                           ;usb_device.c: 2132: CtrlTrfData[1] = 0;
  7286  001C06  0E00               	movlw	0
  7287  001C08  0102               	movlb	2	; () banked
  7288  001C0A  6F39               	movwf	57,b	;volatile
  7289                           
  7290                           ;usb_device.c: 2134: switch(SetupPkt.Recipient)
  7291  001C0C  D038               	goto	i2l3188
  7292  001C0E                     i2l616:
  7293                           
  7294                           ; BSR set to: 2
  7295                           ;usb_device.c: 2137: inPipes[0].info.bits.busy = 1;
  7296  001C0E  8E36               	bsf	_inPipes+3,7,c	;volatile
  7297                           
  7298                           ; BSR set to: 2
  7299                           ;usb_device.c: 2145: }
  7300                           ;usb_device.c: 2147: if(RemoteWakeup == 1)
  7301                           
  7302                           ; BSR set to: 2
  7303                           
  7304                           ; BSR set to: 2
  7305                           ;usb_device.c: 2143: {
  7306                           ;usb_device.c: 2144: CtrlTrfData[0]|=0x01;
  7307                           
  7308                           ;usb_device.c: 2142: if(0 == 1)
  7309  001C10  0442               	decf	_RemoteWakeup,w,c	;volatile
  7310  001C12  A4D8               	btfss	status,2,c
  7311  001C14  D040               	goto	i2l619
  7312                           
  7313                           ; BSR set to: 2
  7314                           ;usb_device.c: 2148: {
  7315                           ;usb_device.c: 2149: CtrlTrfData[0]|=0x02;
  7316  001C16  0102               	movlb	2	; () banked
  7317  001C18  8338               	bsf	56,1,b	;volatile
  7318                           
  7319                           ; BSR set to: 2
  7320                           ;usb_device.c: 2150: }
  7321                           ;usb_device.c: 2151: break;
  7322  001C1A  D03D               	goto	i2l619
  7323  001C1C                     i2l620:
  7324                           
  7325                           ; BSR set to: 2
  7326                           ;usb_device.c: 2153: inPipes[0].info.bits.busy = 1;
  7327  001C1C  8E36               	bsf	_inPipes+3,7,c	;volatile
  7328                           
  7329                           ;usb_device.c: 2154: break;
  7330  001C1E  D03B               	goto	i2l619
  7331  001C20                     i2l621:
  7332                           
  7333                           ; BSR set to: 2
  7334                           ;usb_device.c: 2156: inPipes[0].info.bits.busy = 1;
  7335  001C20  8E36               	bsf	_inPipes+3,7,c	;volatile
  7336                           
  7337                           ;usb_device.c: 2160: {
  7338                           ;usb_device.c: 2161: BDT_ENTRY *p;
  7339                           ;usb_device.c: 2163: if(SetupPkt.EPDir == 0)
  7340  001C22  0102               	movlb	2	; () banked
  7341  001C24  BF34               	btfsc	52,7,b	;volatile
  7342  001C26  D00B               	goto	i2l3178
  7343                           
  7344                           ; BSR set to: 2
  7345                           ;usb_device.c: 2164: {
  7346                           ;usb_device.c: 2165: p = (BDT_ENTRY*)pBDTEntryOut[SetupPkt.EPNum];
  7347  001C28  0102               	movlb	2	; () banked
  7348  001C2A  5134               	movf	52,w,b	;volatile
  7349  001C2C  0B0F               	andlw	15
  7350  001C2E  6E01               	movwf	??_USBStdGetStatusHandler& (0+255),c
  7351  001C30  5001               	movf	??_USBStdGetStatusHandler,w,c
  7352  001C32  0D02               	mullw	2
  7353  001C34  0E6E               	movlw	low _pBDTEntryOut
  7354  001C36  24F3               	addwf	prodl,w,c
  7355  001C38  6ED9               	movwf	fsr2l,c
  7356  001C3A  0E00               	movlw	high _pBDTEntryOut
  7357  001C3C  D00A               	goto	L30
  7358  001C3E                     i2l3178:
  7359                           
  7360                           ; BSR set to: 2
  7361                           ;usb_device.c: 2167: else
  7362                           ;usb_device.c: 2168: {
  7363                           ;usb_device.c: 2169: p = (BDT_ENTRY*)pBDTEntryIn[SetupPkt.EPNum];
  7364  001C3E  0102               	movlb	2	; () banked
  7365  001C40  5134               	movf	52,w,b	;volatile
  7366  001C42  0B0F               	andlw	15
  7367  001C44  6E01               	movwf	??_USBStdGetStatusHandler& (0+255),c
  7368  001C46  5001               	movf	??_USBStdGetStatusHandler,w,c
  7369  001C48  0D02               	mullw	2
  7370  001C4A  0E68               	movlw	low _pBDTEntryIn
  7371  001C4C  24F3               	addwf	prodl,w,c
  7372  001C4E  6ED9               	movwf	fsr2l,c
  7373  001C50  0E00               	movlw	high _pBDTEntryIn
  7374  001C52                     L30:
  7375  001C52  20F4               	addwfc	prodh,w,c
  7376  001C54  6EDA               	movwf	fsr2h,c
  7377  001C56  CFDE F002          	movff	postinc2,USBStdGetStatusHandler@p
  7378  001C5A  CFDD F003          	movff	postdec2,USBStdGetStatusHandler@p+1
  7379                           
  7380                           ; BSR set to: 2
  7381                           ;usb_device.c: 2170: }
  7382                           ;usb_device.c: 2172: if((p->STAT.UOWN == 1) && (p->STAT.BSTALL == 1))
  7383                           
  7384                           ; BSR set to: 2
  7385  001C5E  C002  FFD9         	movff	USBStdGetStatusHandler@p,fsr2l
  7386  001C62  C003  FFDA         	movff	USBStdGetStatusHandler@p+1,fsr2h
  7387  001C66  AEDF               	btfss	indf2,7,c
  7388  001C68  D016               	goto	i2l619
  7389                           
  7390                           ; BSR set to: 2
  7391  001C6A  C002  FFD9         	movff	USBStdGetStatusHandler@p,fsr2l
  7392  001C6E  C003  FFDA         	movff	USBStdGetStatusHandler@p+1,fsr2h
  7393  001C72  A4DF               	btfss	indf2,2,c
  7394  001C74  D010               	goto	i2l619
  7395                           
  7396                           ; BSR set to: 2
  7397                           ;usb_device.c: 2173: CtrlTrfData[0]=0x01;
  7398  001C76  0E01               	movlw	1
  7399  001C78  0102               	movlb	2	; () banked
  7400  001C7A  6F38               	movwf	56,b	;volatile
  7401                           
  7402                           ; BSR set to: 2
  7403                           ;usb_device.c: 2175: }
  7404                           ;usb_device.c: 2176: }
  7405                           
  7406                           ; BSR set to: 2
  7407                           ;usb_device.c: 2174: break;
  7408  001C7C  D00C               	goto	i2l619
  7409  001C7E                     i2l3188:
  7410                           
  7411                           ; BSR set to: 2
  7412  001C7E  0102               	movlb	2	; () banked
  7413  001C80  5130               	movf	48,w,b	;volatile
  7414  001C82  0B1F               	andlw	31
  7415                           
  7416                           ; Switch size 1, requested type "space"
  7417                           ; Number of cases is 3, Range of values is 0 to 2
  7418                           ; switch strategies available:
  7419                           ; Name         Instructions Cycles
  7420                           ; simple_byte           10     6 (average)
  7421                           ;	Chosen strategy is simple_byte
  7422  001C84  0A00               	xorlw	0	; case 0
  7423  001C86  B4D8               	btfsc	status,2,c
  7424  001C88  D7C2               	goto	i2l616
  7425  001C8A  0A01               	xorlw	1	; case 1
  7426  001C8C  B4D8               	btfsc	status,2,c
  7427  001C8E  D7C6               	goto	i2l620
  7428  001C90  0A03               	xorlw	3	; case 2
  7429  001C92  B4D8               	btfsc	status,2,c
  7430  001C94  D7C5               	goto	i2l621
  7431  001C96                     i2l619:
  7432                           
  7433                           ; BSR set to: 2
  7434                           ;usb_device.c: 2178: if(inPipes[0].info.bits.busy == 1)
  7435  001C96  AE36               	btfss	_inPipes+3,7,c	;volatile
  7436  001C98  0012               	return	
  7437                           
  7438                           ; BSR set to: 2
  7439                           ;usb_device.c: 2179: {
  7440                           ;usb_device.c: 2180: inPipes[0].pSrc.bRam = (uint8_t*)&CtrlTrfData;
  7441  001C9A  0E38               	movlw	56
  7442  001C9C  6E33               	movwf	_inPipes,c	;volatile
  7443  001C9E  0E02               	movlw	2
  7444  001CA0  6E34               	movwf	_inPipes+1,c	;volatile
  7445                           
  7446                           ; BSR set to: 2
  7447                           ;usb_device.c: 2181: inPipes[0].info.bits.ctrl_trf_mem = 0x01;
  7448  001CA2  8036               	bsf	_inPipes+3,0,c	;volatile
  7449                           
  7450                           ; BSR set to: 2
  7451                           ;usb_device.c: 2182: inPipes[0].wCount.v[0] = 2;
  7452  001CA4  0E02               	movlw	2
  7453  001CA6  6E37               	movwf	_inPipes+4,c	;volatile
  7454  001CA8  0012               	return	
  7455  001CAA                     __end_of_USBStdGetStatusHandler:
  7456                           	opt stack 0
  7457                           pclatu	equ	0xFFB
  7458                           pclath	equ	0xFFA
  7459                           tblptru	equ	0xFF8
  7460                           tblptrh	equ	0xFF7
  7461                           tblptrl	equ	0xFF6
  7462                           tablat	equ	0xFF5
  7463                           prodh	equ	0xFF4
  7464                           prodl	equ	0xFF3
  7465                           intcon	equ	0xFF2
  7466                           postinc0	equ	0xFEE
  7467                           fsr0h	equ	0xFEA
  7468                           fsr0l	equ	0xFE9
  7469                           wreg	equ	0xFE8
  7470                           indf1	equ	0xFE7
  7471                           postdec1	equ	0xFE5
  7472                           fsr1h	equ	0xFE2
  7473                           fsr1l	equ	0xFE1
  7474                           indf2	equ	0xFDF
  7475                           postinc2	equ	0xFDE
  7476                           postdec2	equ	0xFDD
  7477                           plusw2	equ	0xFDB
  7478                           fsr2h	equ	0xFDA
  7479                           fsr2l	equ	0xFD9
  7480                           status	equ	0xFD8
  7481                           
  7482 ;; *************** function _USBStdGetDscHandler *****************
  7483 ;; Defined at:
  7484 ;;		line 2043 in file "../../mla/framework/usb/src/usb_device.c"
  7485 ;; Parameters:    Size  Location     Type
  7486 ;;		None
  7487 ;; Auto vars:     Size  Location     Type
  7488 ;;		None
  7489 ;; Return value:  Size  Location     Type
  7490 ;;                  1    wreg      void 
  7491 ;; Registers used:
  7492 ;;		wreg, fsr1l, fsr1h, status,2, status,0, tblptrl, tblptrh, tblptru, prodl, prodh
  7493 ;; Tracked objects:
  7494 ;;		On entry : 0/0
  7495 ;;		On exit  : 0/0
  7496 ;;		Unchanged: 0/0
  7497 ;; Data sizes:     COMRAM   BANK0   BANK1
  7498 ;;      Params:         0       0       0
  7499 ;;      Locals:         0       0       0
  7500 ;;      Temps:          2       0       0
  7501 ;;      Totals:         2       0       0
  7502 ;;Total ram usage:        2 bytes
  7503 ;; Hardware stack levels used:    1
  7504 ;; This function calls:
  7505 ;;		Nothing
  7506 ;; This function is called by:
  7507 ;;		_USBCheckStdRequest
  7508 ;; This function uses a non-reentrant model
  7509 ;;
  7510                           
  7511                           	psect	text37
  7512  001268                     __ptext37:
  7513                           	opt stack 0
  7514  001268                     _USBStdGetDscHandler:
  7515                           	opt stack 22
  7516                           
  7517                           ;usb_device.c: 2045: if(SetupPkt.bmRequestType == 0x80)
  7518                           
  7519                           ; BSR set to: 2
  7520                           ;incstack = 0
  7521  001268  0E80               	movlw	128
  7522  00126A  0102               	movlb	2	; () banked
  7523  00126C  1930               	xorwf	48,w,b	;volatile
  7524  00126E  A4D8               	btfss	status,2,c
  7525  001270  0012               	return	
  7526                           
  7527                           ; BSR set to: 2
  7528                           ;usb_device.c: 2046: {
  7529                           ;usb_device.c: 2047: inPipes[0].info.Val = 0x00 | 0x80 | 0x40;
  7530  001272  0EC0               	movlw	192
  7531  001274  6E36               	movwf	_inPipes+3,c	;volatile
  7532                           
  7533                           ;usb_device.c: 2049: switch(SetupPkt.bDescriptorType)
  7534  001276  D07C               	goto	i2l3166
  7535  001278                     i2l3140:
  7536                           
  7537                           ; BSR set to: 2
  7538                           ;usb_device.c: 2055: inPipes[0].pSrc.bRom = (const uint8_t*)&device_dsc;
  7539  001278  0EC9               	movlw	low _device_dsc
  7540  00127A  6E33               	movwf	_inPipes,c	;volatile
  7541  00127C  0E3F               	movlw	high _device_dsc
  7542  00127E  6E34               	movwf	_inPipes+1,c	;volatile
  7543                           
  7544                           ; BSR set to: 2
  7545                           ;usb_device.c: 2057: inPipes[0].wCount.Val = sizeof(device_dsc);
  7546  001280  0E00               	movlw	0
  7547  001282  6E38               	movwf	_inPipes+5,c	;volatile
  7548  001284  0E12               	movlw	18
  7549  001286  6E37               	movwf	_inPipes+4,c	;volatile
  7550                           
  7551                           ;usb_device.c: 2058: break;
  7552  001288  0012               	return	
  7553  00128A                     i2l3144:
  7554                           
  7555                           ; BSR set to: 2
  7556                           ;usb_device.c: 2063: if(SetupPkt.bDscIndex < 1)
  7557  00128A  0102               	movlb	2	; () banked
  7558  00128C  5132               	movf	50,w,b	;volatile
  7559  00128E  A4D8               	btfss	status,2,c
  7560  001290  D03E               	goto	i2l3152
  7561                           
  7562                           ; BSR set to: 2
  7563                           ;usb_device.c: 2064: {
  7564                           ;usb_device.c: 2068: inPipes[0].pSrc.bRom = *(USB_CD_Ptr+SetupPkt.bDscIndex);
  7565  001292  0102               	movlb	2	; () banked
  7566  001294  5132               	movf	50,w,b	;volatile
  7567  001296  0D02               	mullw	2
  7568  001298  0E8F               	movlw	low _USB_CD_Ptr
  7569  00129A  24F3               	addwf	prodl,w,c
  7570  00129C  6EF6               	movwf	tblptrl,c
  7571  00129E  0E3F               	movlw	high _USB_CD_Ptr
  7572  0012A0  20F4               	addwfc	prodh,w,c
  7573  0012A2  6EF7               	movwf	tblptrh,c
  7574  0012A4                     	if	0	;There are less than 3 active tblptr bytes
  7575  0012A4                     	endif
  7576  0012A4  0009               	tblrd		*+
  7577  0012A6  CFF5 F033          	movff	tablat,_inPipes	;volatile
  7578  0012AA  000A               	tblrd		*-
  7579  0012AC  CFF5 F034          	movff	tablat,_inPipes+1	;volatile
  7580                           
  7581                           ; BSR set to: 2
  7582                           ;usb_device.c: 2074: inPipes[0].wCount.byte.LB = *(inPipes[0].pSrc.bRom+2);
  7583  0012B0  0E02               	movlw	2
  7584  0012B2  2433               	addwf	_inPipes,w,c	;volatile
  7585  0012B4  6E01               	movwf	??_USBStdGetDscHandler& (0+255),c
  7586  0012B6  0E00               	movlw	0
  7587  0012B8  2034               	addwfc	_inPipes+1,w,c	;volatile
  7588  0012BA  6E02               	movwf	(??_USBStdGetDscHandler+1)& (0+255),c
  7589  0012BC  C001  FFF6         	movff	??_USBStdGetDscHandler,tblptrl
  7590  0012C0  C002  FFF7         	movff	??_USBStdGetDscHandler+1,tblptrh
  7591  0012C4  6AF8               	clrf	tblptru,c
  7592  0012C6  0E02               	movlw	(high __ramtop+-1)
  7593  0012C8  64F7               	cpfsgt	tblptrh,c
  7594  0012CA  D003               	bra	i2u214_47
  7595  0012CC  0008               	tblrd		*
  7596  0012CE  50F5               	movf	tablat,w,c
  7597  0012D0  D005               	bra	i2u214_40
  7598  0012D2                     i2u214_47:
  7599  0012D2  CFF6 FFE1          	movff	tblptrl,fsr1l
  7600  0012D6  CFF7 FFE2          	movff	tblptrh,fsr1h
  7601  0012DA  50E7               	movf	indf1,w,c
  7602  0012DC                     i2u214_40:
  7603  0012DC  6E37               	movwf	_inPipes+4,c	;volatile
  7604                           
  7605                           ;usb_device.c: 2075: inPipes[0].wCount.byte.HB = *(inPipes[0].pSrc.bRom+3);
  7606  0012DE  0E03               	movlw	3
  7607  0012E0  2433               	addwf	_inPipes,w,c	;volatile
  7608  0012E2  6E01               	movwf	??_USBStdGetDscHandler& (0+255),c
  7609  0012E4  0E00               	movlw	0
  7610  0012E6  2034               	addwfc	_inPipes+1,w,c	;volatile
  7611  0012E8  6E02               	movwf	(??_USBStdGetDscHandler+1)& (0+255),c
  7612  0012EA  C001  FFF6         	movff	??_USBStdGetDscHandler,tblptrl
  7613  0012EE  C002  FFF7         	movff	??_USBStdGetDscHandler+1,tblptrh
  7614  0012F2  6AF8               	clrf	tblptru,c
  7615  0012F4  0E02               	movlw	(high __ramtop+-1)
  7616  0012F6  64F7               	cpfsgt	tblptrh,c
  7617  0012F8  D003               	bra	i2u215_47
  7618  0012FA  0008               	tblrd		*
  7619  0012FC  50F5               	movf	tablat,w,c
  7620  0012FE  D005               	bra	i2u215_40
  7621  001300                     i2u215_47:
  7622  001300  CFF6 FFE1          	movff	tblptrl,fsr1l
  7623  001304  CFF7 FFE2          	movff	tblptrh,fsr1h
  7624  001308  50E7               	movf	indf1,w,c
  7625  00130A                     i2u215_40:
  7626  00130A  6E38               	movwf	_inPipes+5,c	;volatile
  7627                           
  7628                           ;usb_device.c: 2076: }
  7629  00130C  0012               	return	
  7630  00130E                     i2l3152:
  7631                           
  7632                           ;usb_device.c: 2077: else
  7633                           ;usb_device.c: 2078: {
  7634                           ;usb_device.c: 2079: inPipes[0].info.Val = 0;
  7635  00130E  0E00               	movlw	0
  7636  001310  6E36               	movwf	_inPipes+3,c	;volatile
  7637                           
  7638                           ;usb_device.c: 2080: }
  7639                           ;usb_device.c: 2081: break;
  7640  001312  0012               	return	
  7641  001314                     i2l3154:
  7642                           
  7643                           ;usb_device.c: 2086: if(SetupPkt.bDscIndex<4)
  7644  001314  0E04               	movlw	4
  7645  001316  0102               	movlb	2	; () banked
  7646  001318  6132               	cpfslt	50,b	;volatile
  7647  00131A  D024               	goto	i2l3160
  7648                           
  7649                           ; BSR set to: 2
  7650                           ;usb_device.c: 2087: {
  7651                           ;usb_device.c: 2089: inPipes[0].pSrc.bRom = *(USB_SD_Ptr+SetupPkt.bDscIndex);
  7652  00131C  0102               	movlb	2	; () banked
  7653  00131E  5132               	movf	50,w,b	;volatile
  7654  001320  0D02               	mullw	2
  7655  001322  0E87               	movlw	low _USB_SD_Ptr
  7656  001324  24F3               	addwf	prodl,w,c
  7657  001326  6EF6               	movwf	tblptrl,c
  7658  001328  0E3F               	movlw	high _USB_SD_Ptr
  7659  00132A  20F4               	addwfc	prodh,w,c
  7660  00132C  6EF7               	movwf	tblptrh,c
  7661  00132E                     	if	0	;There are less than 3 active tblptr bytes
  7662  00132E                     	endif
  7663  00132E  0009               	tblrd		*+
  7664  001330  CFF5 F033          	movff	tablat,_inPipes	;volatile
  7665  001334  000A               	tblrd		*-
  7666  001336  CFF5 F034          	movff	tablat,_inPipes+1	;volatile
  7667                           
  7668                           ; BSR set to: 2
  7669                           ;usb_device.c: 2091: inPipes[0].wCount.Val = *inPipes[0].pSrc.bRom;
  7670  00133A  C033  FFF6         	movff	_inPipes,tblptrl	;volatile
  7671  00133E  C034  FFF7         	movff	_inPipes+1,tblptrh	;volatile
  7672  001342  6AF8               	clrf	tblptru,c
  7673  001344  0E02               	movlw	(high __ramtop+-1)
  7674  001346  64F7               	cpfsgt	tblptrh,c
  7675  001348  D003               	bra	i2u217_47
  7676  00134A  0008               	tblrd		*
  7677  00134C  50F5               	movf	tablat,w,c
  7678  00134E  D005               	bra	i2u217_40
  7679  001350                     i2u217_47:
  7680  001350  CFF6 FFE1          	movff	tblptrl,fsr1l
  7681  001354  CFF7 FFE2          	movff	tblptrh,fsr1h
  7682  001358  50E7               	movf	indf1,w,c
  7683  00135A                     i2u217_40:
  7684  00135A  6E01               	movwf	??_USBStdGetDscHandler& (0+255),c
  7685  00135C  5001               	movf	??_USBStdGetDscHandler,w,c
  7686  00135E  6E37               	movwf	_inPipes+4,c	;volatile
  7687  001360  6A38               	clrf	_inPipes+5,c	;volatile
  7688                           
  7689                           ;usb_device.c: 2092: }
  7690  001362  0012               	return	
  7691  001364                     i2l3160:
  7692                           
  7693                           ;usb_device.c: 2102: else
  7694                           ;usb_device.c: 2103: {
  7695                           ;usb_device.c: 2104: inPipes[0].info.Val = 0;
  7696  001364  0E00               	movlw	0
  7697  001366  6E36               	movwf	_inPipes+3,c	;volatile
  7698                           
  7699                           ;usb_device.c: 2105: }
  7700                           ;usb_device.c: 2106: break;
  7701  001368  0012               	return	
  7702  00136A                     i2l3162:
  7703                           
  7704                           ;usb_device.c: 2108: inPipes[0].info.Val = 0;
  7705  00136A  0E00               	movlw	0
  7706  00136C  6E36               	movwf	_inPipes+3,c	;volatile
  7707                           
  7708                           ;usb_device.c: 2110: }
  7709                           
  7710                           ;usb_device.c: 2109: break;
  7711  00136E  0012               	return	
  7712  001370                     i2l3166:
  7713  001370  0102               	movlb	2	; () banked
  7714  001372  5133               	movf	51,w,b	;volatile
  7715                           
  7716                           ; Switch size 1, requested type "space"
  7717                           ; Number of cases is 3, Range of values is 1 to 3
  7718                           ; switch strategies available:
  7719                           ; Name         Instructions Cycles
  7720                           ; simple_byte           10     6 (average)
  7721                           ;	Chosen strategy is simple_byte
  7722  001374  0A01               	xorlw	1	; case 1
  7723  001376  B4D8               	btfsc	status,2,c
  7724  001378  D77F               	goto	i2l3140
  7725  00137A  0A03               	xorlw	3	; case 2
  7726  00137C  B4D8               	btfsc	status,2,c
  7727  00137E  D785               	goto	i2l3144
  7728  001380  0A01               	xorlw	1	; case 3
  7729  001382  B4D8               	btfsc	status,2,c
  7730  001384  D7C7               	goto	i2l3154
  7731  001386  D7F1               	goto	i2l3162
  7732  001388                     __end_of_USBStdGetDscHandler:
  7733                           	opt stack 0
  7734                           pclatu	equ	0xFFB
  7735                           pclath	equ	0xFFA
  7736                           tblptru	equ	0xFF8
  7737                           tblptrh	equ	0xFF7
  7738                           tblptrl	equ	0xFF6
  7739                           tablat	equ	0xFF5
  7740                           prodh	equ	0xFF4
  7741                           prodl	equ	0xFF3
  7742                           intcon	equ	0xFF2
  7743                           postinc0	equ	0xFEE
  7744                           fsr0h	equ	0xFEA
  7745                           fsr0l	equ	0xFE9
  7746                           wreg	equ	0xFE8
  7747                           indf1	equ	0xFE7
  7748                           postdec1	equ	0xFE5
  7749                           fsr1h	equ	0xFE2
  7750                           fsr1l	equ	0xFE1
  7751                           indf2	equ	0xFDF
  7752                           postinc2	equ	0xFDE
  7753                           postdec2	equ	0xFDD
  7754                           plusw2	equ	0xFDB
  7755                           fsr2h	equ	0xFDA
  7756                           fsr2l	equ	0xFD9
  7757                           status	equ	0xFD8
  7758                           
  7759 ;; *************** function _USBStdFeatureReqHandler *****************
  7760 ;; Defined at:
  7761 ;;		line 2757 in file "../../mla/framework/usb/src/usb_device.c"
  7762 ;; Parameters:    Size  Location     Type
  7763 ;;		None
  7764 ;; Auto vars:     Size  Location     Type
  7765 ;;  p               2   24[COMRAM] PTR struct __BDT
  7766 ;;		 -> BDT(48), NULL(0), 
  7767 ;;  pUEP            2   21[COMRAM] PTR unsigned char 
  7768 ;;		 -> UEP0(1), 
  7769 ;;  current_ep_d    1   23[COMRAM] struct .
  7770 ;; Return value:  Size  Location     Type
  7771 ;;                  1    wreg      void 
  7772 ;; Registers used:
  7773 ;;		wreg, fsr2l, fsr2h, status,2, status,0, tblptrl, tblptrh, tblptru, prodl, prodh, cstack
  7774 ;; Tracked objects:
  7775 ;;		On entry : 0/0
  7776 ;;		On exit  : 0/0
  7777 ;;		Unchanged: 0/0
  7778 ;; Data sizes:     COMRAM   BANK0   BANK1
  7779 ;;      Params:         0       0       0
  7780 ;;      Locals:         5       0       0
  7781 ;;      Temps:          1       0       0
  7782 ;;      Totals:         6       0       0
  7783 ;;Total ram usage:        6 bytes
  7784 ;; Hardware stack levels used:    1
  7785 ;; Hardware stack levels required when called:    4
  7786 ;; This function calls:
  7787 ;;		_USER_USB_CALLBACK_EVENT_HANDLER
  7788 ;; This function is called by:
  7789 ;;		_USBCheckStdRequest
  7790 ;; This function uses a non-reentrant model
  7791 ;;
  7792                           
  7793                           	psect	text38
  7794  000C1A                     __ptext38:
  7795                           	opt stack 0
  7796  000C1A                     _USBStdFeatureReqHandler:
  7797                           	opt stack 18
  7798                           
  7799                           ;usb_device.c: 2759: BDT_ENTRY *p;
  7800                           ;usb_device.c: 2760: EP_STATUS current_ep_data;
  7801                           ;usb_device.c: 2764: unsigned char* pUEP;
  7802                           ;usb_device.c: 2802: if((SetupPkt.bFeature == 1)&&
  7803                           ;usb_device.c: 2803: (SetupPkt.Recipient == (0x00)))
  7804                           
  7805                           ;incstack = 0
  7806  000C1A  0102               	movlb	2	; () banked
  7807  000C1C  0532               	decf	50,w,b	;volatile
  7808  000C1E  A4D8               	btfss	status,2,c
  7809  000C20  D010               	goto	i2l695
  7810                           
  7811                           ; BSR set to: 2
  7812  000C22  0102               	movlb	2	; () banked
  7813  000C24  5130               	movf	48,w,b	;volatile
  7814  000C26  0B1F               	andlw	31
  7815  000C28  0900               	iorlw	0
  7816  000C2A  A4D8               	btfss	status,2,c
  7817  000C2C  D00A               	goto	i2l695
  7818                           
  7819                           ; BSR set to: 2
  7820                           ;usb_device.c: 2804: {
  7821                           ;usb_device.c: 2805: inPipes[0].info.bits.busy = 1;
  7822  000C2E  8E36               	bsf	_inPipes+3,7,c	;volatile
  7823                           
  7824                           ; BSR set to: 2
  7825                           ;usb_device.c: 2806: if(SetupPkt.bRequest == 3)
  7826  000C30  0E03               	movlw	3
  7827  000C32  0102               	movlb	2	; () banked
  7828  000C34  1931               	xorwf	49,w,b	;volatile
  7829  000C36  A4D8               	btfss	status,2,c
  7830  000C38  D002               	goto	i2l3206
  7831                           
  7832                           ; BSR set to: 2
  7833                           ;usb_device.c: 2807: RemoteWakeup = 1;
  7834  000C3A  0E01               	movlw	1
  7835  000C3C  D001               	goto	L31
  7836  000C3E                     i2l3206:
  7837                           
  7838                           ; BSR set to: 2
  7839                           ;usb_device.c: 2808: else
  7840                           ;usb_device.c: 2809: RemoteWakeup = 0;
  7841  000C3E  0E00               	movlw	0
  7842  000C40                     L31:
  7843  000C40  6E42               	movwf	_RemoteWakeup,c	;volatile
  7844  000C42                     i2l695:
  7845                           
  7846                           ; BSR set to: 2
  7847                           ;usb_device.c: 2810: }
  7848                           ;usb_device.c: 2813: if((SetupPkt.bFeature == 0)&&
  7849                           ;usb_device.c: 2814: (SetupPkt.Recipient == (0x02))&&
  7850                           ;usb_device.c: 2815: (SetupPkt.EPNum != 0) && (SetupPkt.EPNum <= 2)&&
  7851                           ;usb_device.c: 2816: (USBDeviceState == CONFIGURED_STATE))
  7852  000C42  0102               	movlb	2	; () banked
  7853  000C44  5132               	movf	50,w,b	;volatile
  7854  000C46  A4D8               	btfss	status,2,c
  7855  000C48  0012               	return	
  7856                           
  7857                           ; BSR set to: 2
  7858  000C4A  0102               	movlb	2	; () banked
  7859  000C4C  5130               	movf	48,w,b	;volatile
  7860  000C4E  0B1F               	andlw	31
  7861  000C50  0A02               	xorlw	2
  7862  000C52  A4D8               	btfss	status,2,c
  7863  000C54  0012               	return	
  7864                           
  7865                           ; BSR set to: 2
  7866  000C56  0102               	movlb	2	; () banked
  7867  000C58  5134               	movf	52,w,b	;volatile
  7868  000C5A  0B0F               	andlw	15
  7869  000C5C  0900               	iorlw	0
  7870  000C5E  B4D8               	btfsc	status,2,c
  7871  000C60  0012               	return	
  7872                           
  7873                           ; BSR set to: 2
  7874  000C62  0102               	movlb	2	; () banked
  7875  000C64  5134               	movf	52,w,b	;volatile
  7876  000C66  0B0F               	andlw	15
  7877  000C68  6E15               	movwf	??_USBStdFeatureReqHandler& (0+255),c
  7878  000C6A  0E03               	movlw	3
  7879  000C6C  6015               	cpfslt	??_USBStdFeatureReqHandler,c
  7880  000C6E  0012               	return	
  7881                           
  7882                           ; BSR set to: 2
  7883  000C70  0E20               	movlw	32
  7884  000C72  0100               	movlb	0	; () banked
  7885  000C74  1986               	xorwf	_USBDeviceState& (0+255),w,b	;volatile
  7886  000C76  A4D8               	btfss	status,2,c
  7887  000C78  0012               	return	
  7888                           
  7889                           ; BSR set to: 0
  7890                           ;usb_device.c: 2817: {
  7891                           ;usb_device.c: 2820: inPipes[0].info.bits.busy = 1;
  7892  000C7A  8E36               	bsf	_inPipes+3,7,c	;volatile
  7893                           
  7894                           ;usb_device.c: 2823: if(SetupPkt.EPDir == 0)
  7895  000C7C  0102               	movlb	2	; () banked
  7896  000C7E  BF34               	btfsc	52,7,b	;volatile
  7897  000C80  D01B               	goto	i2l3220
  7898                           
  7899                           ; BSR set to: 2
  7900                           ;usb_device.c: 2824: {
  7901                           ;usb_device.c: 2825: p = (BDT_ENTRY*)pBDTEntryOut[SetupPkt.EPNum];
  7902  000C82  0102               	movlb	2	; () banked
  7903  000C84  5134               	movf	52,w,b	;volatile
  7904  000C86  0B0F               	andlw	15
  7905  000C88  6E15               	movwf	??_USBStdFeatureReqHandler& (0+255),c
  7906  000C8A  5015               	movf	??_USBStdFeatureReqHandler,w,c
  7907  000C8C  0D02               	mullw	2
  7908  000C8E  0E6E               	movlw	low _pBDTEntryOut
  7909  000C90  24F3               	addwf	prodl,w,c
  7910  000C92  6ED9               	movwf	fsr2l,c
  7911  000C94  0E00               	movlw	high _pBDTEntryOut
  7912  000C96  20F4               	addwfc	prodh,w,c
  7913  000C98  6EDA               	movwf	fsr2h,c
  7914  000C9A  CFDE F019          	movff	postinc2,USBStdFeatureReqHandler@p
  7915  000C9E  CFDD F01A          	movff	postdec2,USBStdFeatureReqHandler@p+1
  7916                           
  7917                           ;usb_device.c: 2826: current_ep_data.Val = ep_data_out[SetupPkt.EPNum].Val;
  7918  000CA2  0102               	movlb	2	; () banked
  7919  000CA4  5134               	movf	52,w,b	;volatile
  7920  000CA6  0B0F               	andlw	15
  7921  000CA8  6E15               	movwf	??_USBStdFeatureReqHandler& (0+255),c
  7922  000CAA  5015               	movf	??_USBStdFeatureReqHandler,w,c
  7923  000CAC  0D01               	mullw	1
  7924  000CAE  0E77               	movlw	low _ep_data_out
  7925  000CB0  24F3               	addwf	prodl,w,c
  7926  000CB2  6ED9               	movwf	fsr2l,c
  7927  000CB4  0E00               	movlw	high _ep_data_out
  7928  000CB6  D01A               	goto	L32
  7929  000CB8                     i2l3220:
  7930                           
  7931                           ; BSR set to: 2
  7932                           ;usb_device.c: 2828: else
  7933                           ;usb_device.c: 2829: {
  7934                           ;usb_device.c: 2830: p = (BDT_ENTRY*)pBDTEntryIn[SetupPkt.EPNum];
  7935  000CB8  0102               	movlb	2	; () banked
  7936  000CBA  5134               	movf	52,w,b	;volatile
  7937  000CBC  0B0F               	andlw	15
  7938  000CBE  6E15               	movwf	??_USBStdFeatureReqHandler& (0+255),c
  7939  000CC0  5015               	movf	??_USBStdFeatureReqHandler,w,c
  7940  000CC2  0D02               	mullw	2
  7941  000CC4  0E68               	movlw	low _pBDTEntryIn
  7942  000CC6  24F3               	addwf	prodl,w,c
  7943  000CC8  6ED9               	movwf	fsr2l,c
  7944  000CCA  0E00               	movlw	high _pBDTEntryIn
  7945  000CCC  20F4               	addwfc	prodh,w,c
  7946  000CCE  6EDA               	movwf	fsr2h,c
  7947  000CD0  CFDE F019          	movff	postinc2,USBStdFeatureReqHandler@p
  7948  000CD4  CFDD F01A          	movff	postdec2,USBStdFeatureReqHandler@p+1
  7949                           
  7950                           ;usb_device.c: 2831: current_ep_data.Val = ep_data_in[SetupPkt.EPNum].Val;
  7951  000CD8  0102               	movlb	2	; () banked
  7952  000CDA  5134               	movf	52,w,b	;volatile
  7953  000CDC  0B0F               	andlw	15
  7954  000CDE  6E15               	movwf	??_USBStdFeatureReqHandler& (0+255),c
  7955  000CE0  5015               	movf	??_USBStdFeatureReqHandler,w,c
  7956  000CE2  0D01               	mullw	1
  7957  000CE4  0E74               	movlw	low _ep_data_in
  7958  000CE6  24F3               	addwf	prodl,w,c
  7959  000CE8  6ED9               	movwf	fsr2l,c
  7960  000CEA  0E00               	movlw	high _ep_data_in
  7961  000CEC                     L32:
  7962  000CEC  20F4               	addwfc	prodh,w,c
  7963  000CEE  6EDA               	movwf	fsr2h,c
  7964  000CF0  50DF               	movf	indf2,w,c
  7965  000CF2  6E18               	movwf	USBStdFeatureReqHandler@current_ep_data,c
  7966                           
  7967                           ; BSR set to: 2
  7968                           ;usb_device.c: 2832: }
  7969                           ;usb_device.c: 2838: if(current_ep_data.bits.ping_pong_state == 0)
  7970                           
  7971                           ; BSR set to: 2
  7972  000CF4  B018               	btfsc	USBStdFeatureReqHandler@current_ep_data,0,c
  7973  000CF6  D002               	goto	i2l3226
  7974                           
  7975                           ; BSR set to: 2
  7976                           ;usb_device.c: 2839: {
  7977                           ;usb_device.c: 2840: {((uint8_t_VAL*)&p)->Val &= ~0x0004;};
  7978  000CF8  9419               	bcf	USBStdFeatureReqHandler@p,2,c
  7979                           
  7980                           ;usb_device.c: 2841: }
  7981  000CFA  D001               	goto	i2l3228
  7982  000CFC                     i2l3226:
  7983                           
  7984                           ; BSR set to: 2
  7985                           ;usb_device.c: 2842: else
  7986                           ;usb_device.c: 2843: {
  7987                           ;usb_device.c: 2844: {((uint8_t_VAL*)&p)->Val |= 0x0004;};
  7988  000CFC  8419               	bsf	USBStdFeatureReqHandler@p,2,c
  7989  000CFE                     i2l3228:
  7990                           
  7991                           ; BSR set to: 2
  7992                           ;usb_device.c: 2845: }
  7993                           ;usb_device.c: 2850: if(SetupPkt.EPDir == 0)
  7994  000CFE  0102               	movlb	2	; () banked
  7995  000D00  BF34               	btfsc	52,7,b	;volatile
  7996  000D02  D00B               	goto	i2l3232
  7997                           
  7998                           ; BSR set to: 2
  7999                           ;usb_device.c: 2851: {
  8000                           ;usb_device.c: 2852: pBDTEntryOut[SetupPkt.EPNum] = (volatile BDT_ENTRY *)p;
  8001  000D04  0102               	movlb	2	; () banked
  8002  000D06  5134               	movf	52,w,b	;volatile
  8003  000D08  0B0F               	andlw	15
  8004  000D0A  6E15               	movwf	??_USBStdFeatureReqHandler& (0+255),c
  8005  000D0C  5015               	movf	??_USBStdFeatureReqHandler,w,c
  8006  000D0E  0D02               	mullw	2
  8007  000D10  0E6E               	movlw	low _pBDTEntryOut
  8008  000D12  24F3               	addwf	prodl,w,c
  8009  000D14  6ED9               	movwf	fsr2l,c
  8010  000D16  0E00               	movlw	high _pBDTEntryOut
  8011  000D18  D00A               	goto	L33
  8012  000D1A                     i2l3232:
  8013                           
  8014                           ; BSR set to: 2
  8015                           ;usb_device.c: 2854: else
  8016                           ;usb_device.c: 2855: {
  8017                           ;usb_device.c: 2856: pBDTEntryIn[SetupPkt.EPNum] = (volatile BDT_ENTRY *)p;
  8018  000D1A  0102               	movlb	2	; () banked
  8019  000D1C  5134               	movf	52,w,b	;volatile
  8020  000D1E  0B0F               	andlw	15
  8021  000D20  6E15               	movwf	??_USBStdFeatureReqHandler& (0+255),c
  8022  000D22  5015               	movf	??_USBStdFeatureReqHandler,w,c
  8023  000D24  0D02               	mullw	2
  8024  000D26  0E68               	movlw	low _pBDTEntryIn
  8025  000D28  24F3               	addwf	prodl,w,c
  8026  000D2A  6ED9               	movwf	fsr2l,c
  8027  000D2C  0E00               	movlw	high _pBDTEntryIn
  8028  000D2E                     L33:
  8029  000D2E  20F4               	addwfc	prodh,w,c
  8030  000D30  6EDA               	movwf	fsr2h,c
  8031  000D32  C019  FFDE         	movff	USBStdFeatureReqHandler@p,postinc2
  8032  000D36  C01A  FFDD         	movff	USBStdFeatureReqHandler@p+1,postdec2
  8033                           
  8034                           ; BSR set to: 2
  8035                           ;usb_device.c: 2857: }
  8036                           ;usb_device.c: 2860: if(SetupPkt.bRequest == 3)
  8037                           
  8038                           ; BSR set to: 2
  8039  000D3A  0E03               	movlw	3
  8040  000D3C  0102               	movlb	2	; () banked
  8041  000D3E  1931               	xorwf	49,w,b	;volatile
  8042  000D40  A4D8               	btfss	status,2,c
  8043  000D42  D02F               	goto	i2l3248
  8044                           
  8045                           ; BSR set to: 2
  8046                           ;usb_device.c: 2861: {
  8047                           ;usb_device.c: 2862: if(p->STAT.UOWN == 1)
  8048  000D44  C019  FFD9         	movff	USBStdFeatureReqHandler@p,fsr2l
  8049  000D48  C01A  FFDA         	movff	USBStdFeatureReqHandler@p+1,fsr2h
  8050  000D4C  AEDF               	btfss	indf2,7,c
  8051  000D4E  D01C               	goto	i2l3244
  8052                           
  8053                           ; BSR set to: 2
  8054                           ;usb_device.c: 2863: {
  8055                           ;usb_device.c: 2866: if(SetupPkt.EPDir == 0)
  8056  000D50  0102               	movlb	2	; () banked
  8057  000D52  BF34               	btfsc	52,7,b	;volatile
  8058  000D54  D00B               	goto	i2l3242
  8059                           
  8060                           ; BSR set to: 2
  8061                           ;usb_device.c: 2867: {
  8062                           ;usb_device.c: 2868: ep_data_out[SetupPkt.EPNum].bits.transfer_terminated = 1;
  8063  000D56  0102               	movlb	2	; () banked
  8064  000D58  5134               	movf	52,w,b	;volatile
  8065  000D5A  0B0F               	andlw	15
  8066  000D5C  6E15               	movwf	??_USBStdFeatureReqHandler& (0+255),c
  8067  000D5E  5015               	movf	??_USBStdFeatureReqHandler,w,c
  8068  000D60  0D01               	mullw	1
  8069  000D62  0E77               	movlw	low _ep_data_out
  8070  000D64  24F3               	addwf	prodl,w,c
  8071  000D66  6ED9               	movwf	fsr2l,c
  8072  000D68  0E00               	movlw	high _ep_data_out
  8073  000D6A  D00A               	goto	L34
  8074  000D6C                     i2l3242:
  8075                           
  8076                           ;usb_device.c: 2870: else
  8077                           ;usb_device.c: 2871: {
  8078                           ;usb_device.c: 2872: ep_data_in[SetupPkt.EPNum].bits.transfer_terminated = 1;
  8079  000D6C  0102               	movlb	2	; () banked
  8080  000D6E  5134               	movf	52,w,b	;volatile
  8081  000D70  0B0F               	andlw	15
  8082  000D72  6E15               	movwf	??_USBStdFeatureReqHandler& (0+255),c
  8083  000D74  5015               	movf	??_USBStdFeatureReqHandler,w,c
  8084  000D76  0D01               	mullw	1
  8085  000D78  0E74               	movlw	low _ep_data_in
  8086  000D7A  24F3               	addwf	prodl,w,c
  8087  000D7C  6ED9               	movwf	fsr2l,c
  8088  000D7E  0E00               	movlw	high _ep_data_in
  8089  000D80                     L34:
  8090  000D80  20F4               	addwfc	prodh,w,c
  8091  000D82  6EDA               	movwf	fsr2h,c
  8092  000D84  0100               	movlb	0	; () banked
  8093  000D86  82DF               	bsf	indf2,1,c
  8094  000D88                     i2l3244:
  8095                           
  8096                           ;usb_device.c: 2873: }
  8097                           ;usb_device.c: 2874: }
  8098                           ;usb_device.c: 2877: p->STAT.Val |= 0x04;
  8099  000D88  C019  FFD9         	movff	USBStdFeatureReqHandler@p,fsr2l
  8100  000D8C  C01A  FFDA         	movff	USBStdFeatureReqHandler@p+1,fsr2h
  8101  000D90  0E00               	movlw	0
  8102  000D92  84DB               	bsf	plusw2,2,c
  8103                           
  8104                           ;usb_device.c: 2878: p->STAT.Val |= 0x80;
  8105  000D94  C019  FFD9         	movff	USBStdFeatureReqHandler@p,fsr2l
  8106  000D98  C01A  FFDA         	movff	USBStdFeatureReqHandler@p+1,fsr2h
  8107  000D9C  0E00               	movlw	0
  8108  000D9E  8EDB               	bsf	plusw2,7,c
  8109                           
  8110                           ;usb_device.c: 2879: }
  8111  000DA0  0012               	return	
  8112  000DA2                     i2l3248:
  8113                           
  8114                           ;usb_device.c: 2880: else
  8115                           ;usb_device.c: 2881: {
  8116                           ;usb_device.c: 2885: {((uint8_t_VAL*)&p)->Val ^= 0x0004;};
  8117  000DA2  0E04               	movlw	4
  8118  000DA4  1A19               	xorwf	USBStdFeatureReqHandler@p,f,c
  8119                           
  8120                           ;usb_device.c: 2887: if(p->STAT.UOWN == 1)
  8121  000DA6  C019  FFD9         	movff	USBStdFeatureReqHandler@p,fsr2l
  8122  000DAA  C01A  FFDA         	movff	USBStdFeatureReqHandler@p+1,fsr2h
  8123  000DAE  AEDF               	btfss	indf2,7,c
  8124  000DB0  D01B               	goto	i2l3258
  8125                           
  8126                           ;usb_device.c: 2888: {
  8127                           ;usb_device.c: 2891: p->STAT.Val &= (~0x80);
  8128  000DB2  C019  FFD9         	movff	USBStdFeatureReqHandler@p,fsr2l
  8129  000DB6  C01A  FFDA         	movff	USBStdFeatureReqHandler@p+1,fsr2h
  8130  000DBA  0E7F               	movlw	127
  8131  000DBC  16DF               	andwf	indf2,f,c
  8132                           
  8133                           ;usb_device.c: 2892: p->STAT.Val |= 0x40;
  8134  000DBE  C019  FFD9         	movff	USBStdFeatureReqHandler@p,fsr2l
  8135  000DC2  C01A  FFDA         	movff	USBStdFeatureReqHandler@p+1,fsr2h
  8136  000DC6  0E00               	movlw	0
  8137  000DC8  8CDB               	bsf	plusw2,6,c
  8138                           
  8139                           ;usb_device.c: 2893: USER_USB_CALLBACK_EVENT_HANDLER(EVENT_TRANSFER_TERMINATED,p,sizeof(
      +                          p));
  8140  000DCA  0E00               	movlw	0
  8141  000DCC  6E0E               	movwf	USER_USB_CALLBACK_EVENT_HANDLER@event+1,c
  8142  000DCE  0E05               	movlw	5
  8143  000DD0  6E0D               	movwf	USER_USB_CALLBACK_EVENT_HANDLER@event,c
  8144  000DD2  C019  F00F         	movff	USBStdFeatureReqHandler@p,USER_USB_CALLBACK_EVENT_HANDLER@pdata
  8145  000DD6  C01A  F010         	movff	USBStdFeatureReqHandler@p+1,USER_USB_CALLBACK_EVENT_HANDLER@pdata+1
  8146  000DDA  0E00               	movlw	0
  8147  000DDC  6E12               	movwf	USER_USB_CALLBACK_EVENT_HANDLER@size+1,c
  8148  000DDE  0E02               	movlw	2
  8149  000DE0  6E11               	movwf	USER_USB_CALLBACK_EVENT_HANDLER@size,c
  8150  000DE2  EC6A  F00F         	call	_USER_USB_CALLBACK_EVENT_HANDLER	;wreg free
  8151                           
  8152                           ;usb_device.c: 2894: }
  8153  000DE6  D006               	goto	i2l3260
  8154  000DE8                     i2l3258:
  8155                           
  8156                           ;usb_device.c: 2895: else
  8157                           ;usb_device.c: 2896: {
  8158                           ;usb_device.c: 2898: p->STAT.Val |= 0x40;
  8159  000DE8  C019  FFD9         	movff	USBStdFeatureReqHandler@p,fsr2l
  8160  000DEC  C01A  FFDA         	movff	USBStdFeatureReqHandler@p+1,fsr2h
  8161  000DF0  0E00               	movlw	0
  8162  000DF2  8CDB               	bsf	plusw2,6,c
  8163  000DF4                     i2l3260:
  8164                           
  8165                           ;usb_device.c: 2899: }
  8166                           ;usb_device.c: 2903: {((uint8_t_VAL*)&p)->Val ^= 0x0004;};
  8167  000DF4  0E04               	movlw	4
  8168  000DF6  1A19               	xorwf	USBStdFeatureReqHandler@p,f,c
  8169                           
  8170                           ;usb_device.c: 2909: if((current_ep_data.bits.transfer_terminated != 0) || (p->STAT.UOWN
      +                           == 1))
  8171  000DF8  B218               	btfsc	USBStdFeatureReqHandler@current_ep_data,1,c
  8172  000DFA  D006               	goto	i2l714
  8173  000DFC  C019  FFD9         	movff	USBStdFeatureReqHandler@p,fsr2l
  8174  000E00  C01A  FFDA         	movff	USBStdFeatureReqHandler@p+1,fsr2h
  8175  000E04  AEDF               	btfss	indf2,7,c
  8176  000E06  D031               	goto	i2l3274
  8177  000E08                     i2l714:
  8178                           
  8179                           ;usb_device.c: 2910: {
  8180                           ;usb_device.c: 2911: if(SetupPkt.EPDir == 0)
  8181  000E08  0102               	movlb	2	; () banked
  8182  000E0A  BF34               	btfsc	52,7,b	;volatile
  8183  000E0C  D00B               	goto	i2l3268
  8184                           
  8185                           ; BSR set to: 2
  8186                           ;usb_device.c: 2912: {
  8187                           ;usb_device.c: 2913: ep_data_out[SetupPkt.EPNum].bits.transfer_terminated = 0;
  8188  000E0E  0102               	movlb	2	; () banked
  8189  000E10  5134               	movf	52,w,b	;volatile
  8190  000E12  0B0F               	andlw	15
  8191  000E14  6E15               	movwf	??_USBStdFeatureReqHandler& (0+255),c
  8192  000E16  5015               	movf	??_USBStdFeatureReqHandler,w,c
  8193  000E18  0D01               	mullw	1
  8194  000E1A  0E77               	movlw	low _ep_data_out
  8195  000E1C  24F3               	addwf	prodl,w,c
  8196  000E1E  6ED9               	movwf	fsr2l,c
  8197  000E20  0E00               	movlw	high _ep_data_out
  8198  000E22  D00A               	goto	L35
  8199  000E24                     i2l3268:
  8200                           
  8201                           ;usb_device.c: 2915: else
  8202                           ;usb_device.c: 2916: {
  8203                           ;usb_device.c: 2917: ep_data_in[SetupPkt.EPNum].bits.transfer_terminated = 0;
  8204  000E24  0102               	movlb	2	; () banked
  8205  000E26  5134               	movf	52,w,b	;volatile
  8206  000E28  0B0F               	andlw	15
  8207  000E2A  6E15               	movwf	??_USBStdFeatureReqHandler& (0+255),c
  8208  000E2C  5015               	movf	??_USBStdFeatureReqHandler,w,c
  8209  000E2E  0D01               	mullw	1
  8210  000E30  0E74               	movlw	low _ep_data_in
  8211  000E32  24F3               	addwf	prodl,w,c
  8212  000E34  6ED9               	movwf	fsr2l,c
  8213  000E36  0E00               	movlw	high _ep_data_in
  8214  000E38                     L35:
  8215  000E38  20F4               	addwfc	prodh,w,c
  8216  000E3A  6EDA               	movwf	fsr2h,c
  8217  000E3C  0100               	movlb	0	; () banked
  8218  000E3E  92DF               	bcf	indf2,1,c
  8219                           
  8220                           ; BSR set to: 0
  8221                           ;usb_device.c: 2918: }
  8222                           ;usb_device.c: 2920: p->STAT.Val &= ~(0x80 | 0x40 | 0x04);
  8223                           
  8224                           ; BSR set to: 0
  8225  000E40  C019  FFD9         	movff	USBStdFeatureReqHandler@p,fsr2l
  8226  000E44  C01A  FFDA         	movff	USBStdFeatureReqHandler@p+1,fsr2h
  8227  000E48  0E3B               	movlw	59
  8228  000E4A  16DF               	andwf	indf2,f,c
  8229                           
  8230                           ; BSR set to: 0
  8231                           ;usb_device.c: 2923: USER_USB_CALLBACK_EVENT_HANDLER(EVENT_TRANSFER_TERMINATED,p,sizeof(
      +                          p));
  8232  000E4C  0E00               	movlw	0
  8233  000E4E  6E0E               	movwf	USER_USB_CALLBACK_EVENT_HANDLER@event+1,c
  8234  000E50  0E05               	movlw	5
  8235  000E52  6E0D               	movwf	USER_USB_CALLBACK_EVENT_HANDLER@event,c
  8236  000E54  C019  F00F         	movff	USBStdFeatureReqHandler@p,USER_USB_CALLBACK_EVENT_HANDLER@pdata
  8237  000E58  C01A  F010         	movff	USBStdFeatureReqHandler@p+1,USER_USB_CALLBACK_EVENT_HANDLER@pdata+1
  8238  000E5C  0E00               	movlw	0
  8239  000E5E  6E12               	movwf	USER_USB_CALLBACK_EVENT_HANDLER@size+1,c
  8240  000E60  0E02               	movlw	2
  8241  000E62  6E11               	movwf	USER_USB_CALLBACK_EVENT_HANDLER@size,c
  8242  000E64  EC6A  F00F         	call	_USER_USB_CALLBACK_EVENT_HANDLER	;wreg free
  8243                           
  8244                           ;usb_device.c: 2924: }
  8245  000E68  D006               	goto	i2l3276
  8246  000E6A                     i2l3274:
  8247                           
  8248                           ;usb_device.c: 2925: else
  8249                           ;usb_device.c: 2926: {
  8250                           ;usb_device.c: 2928: p->STAT.Val &= ~(0x80 | 0x40 | 0x04);
  8251  000E6A  C019  FFD9         	movff	USBStdFeatureReqHandler@p,fsr2l
  8252  000E6E  C01A  FFDA         	movff	USBStdFeatureReqHandler@p+1,fsr2h
  8253  000E72  0E3B               	movlw	59
  8254  000E74  16DF               	andwf	indf2,f,c
  8255  000E76                     i2l3276:
  8256                           
  8257                           ;usb_device.c: 2929: }
  8258                           ;usb_device.c: 2976: pUEP = (unsigned char*)(&UEP0+SetupPkt.EPNum);
  8259  000E76  0102               	movlb	2	; () banked
  8260  000E78  5134               	movf	52,w,b	;volatile
  8261  000E7A  0B0F               	andlw	15
  8262  000E7C  6E15               	movwf	??_USBStdFeatureReqHandler& (0+255),c
  8263  000E7E  5015               	movf	??_USBStdFeatureReqHandler,w,c
  8264  000E80  0D01               	mullw	1
  8265  000E82  0E53               	movlw	83
  8266  000E84  24F3               	addwf	prodl,w,c
  8267  000E86  6E16               	movwf	USBStdFeatureReqHandler@pUEP,c
  8268  000E88  0E0F               	movlw	15
  8269  000E8A  20F4               	addwfc	prodh,w,c
  8270  000E8C  6E17               	movwf	USBStdFeatureReqHandler@pUEP+1,c
  8271                           
  8272                           ; BSR set to: 2
  8273                           ;usb_device.c: 2980: *pUEP &= ~0x0001;
  8274  000E8E  C016  FFD9         	movff	USBStdFeatureReqHandler@pUEP,fsr2l
  8275  000E92  C017  FFDA         	movff	USBStdFeatureReqHandler@pUEP+1,fsr2h
  8276  000E96  0EFE               	movlw	254
  8277  000E98  16DF               	andwf	indf2,f,c
  8278                           
  8279                           ; BSR set to: 2
  8280  000E9A  0012               	return	
  8281  000E9C                     __end_of_USBStdFeatureReqHandler:
  8282                           	opt stack 0
  8283                           pclatu	equ	0xFFB
  8284                           pclath	equ	0xFFA
  8285                           tblptru	equ	0xFF8
  8286                           tblptrh	equ	0xFF7
  8287                           tblptrl	equ	0xFF6
  8288                           tablat	equ	0xFF5
  8289                           prodh	equ	0xFF4
  8290                           prodl	equ	0xFF3
  8291                           intcon	equ	0xFF2
  8292                           postinc0	equ	0xFEE
  8293                           fsr0h	equ	0xFEA
  8294                           fsr0l	equ	0xFE9
  8295                           wreg	equ	0xFE8
  8296                           indf1	equ	0xFE7
  8297                           postdec1	equ	0xFE5
  8298                           fsr1h	equ	0xFE2
  8299                           fsr1l	equ	0xFE1
  8300                           indf2	equ	0xFDF
  8301                           postinc2	equ	0xFDE
  8302                           postdec2	equ	0xFDD
  8303                           plusw2	equ	0xFDB
  8304                           fsr2h	equ	0xFDA
  8305                           fsr2l	equ	0xFD9
  8306                           status	equ	0xFD8
  8307                           
  8308 ;; *************** function _USER_USB_CALLBACK_EVENT_HANDLER *****************
  8309 ;; Defined at:
  8310 ;;		line 164 in file "../src/main.c"
  8311 ;; Parameters:    Size  Location     Type
  8312 ;;  event           2   12[COMRAM] enum E3638
  8313 ;;  pdata           2   14[COMRAM] PTR void 
  8314 ;;		 -> USTATcopy(1), USBActiveConfiguration(1), BDT(48), NULL(0), 
  8315 ;;  size            2   16[COMRAM] unsigned int 
  8316 ;; Auto vars:     Size  Location     Type
  8317 ;;		None
  8318 ;; Return value:  Size  Location     Type
  8319 ;;                  1    wreg      unsigned char 
  8320 ;; Registers used:
  8321 ;;		wreg, fsr2l, fsr2h, status,2, status,0, tblptrl, tblptrh, tblptru, prodl, prodh, cstack
  8322 ;; Tracked objects:
  8323 ;;		On entry : 0/0
  8324 ;;		On exit  : 0/0
  8325 ;;		Unchanged: 0/0
  8326 ;; Data sizes:     COMRAM   BANK0   BANK1
  8327 ;;      Params:         6       0       0
  8328 ;;      Locals:         0       0       0
  8329 ;;      Temps:          2       0       0
  8330 ;;      Totals:         8       0       0
  8331 ;;Total ram usage:        8 bytes
  8332 ;; Hardware stack levels used:    1
  8333 ;; Hardware stack levels required when called:    3
  8334 ;; This function calls:
  8335 ;;		_USBCheckVendorRequest
  8336 ;;		_USB_Ept_Init
  8337 ;;		_USB_FT245_Emulation
  8338 ;; This function is called by:
  8339 ;;		_USBDeviceTasks
  8340 ;;		_USBStdSetCfgHandler
  8341 ;;		_USBSuspend
  8342 ;;		_USBWakeFromSuspend
  8343 ;;		_USBCtrlTrfSetupHandler
  8344 ;;		_USBCheckStdRequest
  8345 ;;		_USBStdFeatureReqHandler
  8346 ;; This function uses a non-reentrant model
  8347 ;;
  8348                           
  8349                           	psect	text39
  8350  001ED4                     __ptext39:
  8351                           	opt stack 0
  8352  001ED4                     _USER_USB_CALLBACK_EVENT_HANDLER:
  8353                           	opt stack 22
  8354                           
  8355                           ;main.c: 166: switch((int)event)
  8356                           
  8357                           ;incstack = 0
  8358  001ED4  D008               	goto	i2l2980
  8359  001ED6                     i2l2972:
  8360                           
  8361                           ;main.c: 181: USB_Ept_Init();
  8362  001ED6  ECC8  F00F         	call	_USB_Ept_Init	;wreg free
  8363                           
  8364                           ;main.c: 185: break;
  8365                           
  8366                           ;main.c: 184: case EVENT_SET_DESCRIPTOR:
  8367                           
  8368                           ;main.c: 182: break;
  8369  001EDA  0012               	return	
  8370  001EDC                     i2l2974:
  8371                           
  8372                           ;main.c: 190: USBCheckVendorRequest();
  8373  001EDC  EC84  F011         	call	_USBCheckVendorRequest	;wreg free
  8374                           
  8375                           ;main.c: 191: USB_FT245_Emulation();
  8376  001EE0  EC31  F00F         	call	_USB_FT245_Emulation	;wreg free
  8377                           
  8378                           ;main.c: 202: }
  8379                           
  8380                           ;main.c: 201: break;
  8381                           
  8382                           ;main.c: 200: default:
  8383                           
  8384                           ;main.c: 198: break;
  8385                           
  8386                           ;main.c: 197: case EVENT_TRANSFER_TERMINATED:
  8387                           
  8388                           ;main.c: 195: break;
  8389                           
  8390                           ;main.c: 194: case EVENT_BUS_ERROR:
  8391                           
  8392                           ;main.c: 192: break;
  8393  001EE4  0012               	return	
  8394  001EE6                     i2l2980:
  8395  001EE6  C00D  F013         	movff	USER_USB_CALLBACK_EVENT_HANDLER@event,??_USER_USB_CALLBACK_EVENT_HANDLER
  8396  001EEA  C00E  F014         	movff	USER_USB_CALLBACK_EVENT_HANDLER@event+1,??_USER_USB_CALLBACK_EVENT_HANDLER+1
  8397                           
  8398                           ; Switch on 2 bytes has been partitioned into a top level switch of size 1, and 2 sub-sw
      +                          itches
  8399                           ; Switch size 1, requested type "space"
  8400                           ; Number of cases is 2, Range of values is 0 to 127
  8401                           ; switch strategies available:
  8402                           ; Name         Instructions Cycles
  8403                           ; simple_byte            7     4 (average)
  8404                           ;	Chosen strategy is simple_byte
  8405  001EEE  5014               	movf	??_USER_USB_CALLBACK_EVENT_HANDLER+1,w,c
  8406  001EF0  0A00               	xorlw	0	; case 0
  8407  001EF2  B4D8               	btfsc	status,2,c
  8408  001EF4  D004               	goto	i2l4264
  8409  001EF6  0A7F               	xorlw	127	; case 127
  8410  001EF8  A4D8               	btfss	status,2,c
  8411  001EFA  0012               	return	
  8412  001EFC  D018               	goto	i2l4266
  8413  001EFE                     i2l4264:
  8414                           
  8415                           ; Switch size 1, requested type "space"
  8416                           ; Number of cases is 8, Range of values is 1 to 117
  8417                           ; switch strategies available:
  8418                           ; Name         Instructions Cycles
  8419                           ; simple_byte           25    13 (average)
  8420                           ;	Chosen strategy is simple_byte
  8421  001EFE  5013               	movf	??_USER_USB_CALLBACK_EVENT_HANDLER,w,c
  8422  001F00  0A01               	xorlw	1	; case 1
  8423  001F02  B4D8               	btfsc	status,2,c
  8424  001F04  D7E8               	goto	i2l2972
  8425  001F06  0A03               	xorlw	3	; case 2
  8426  001F08  B4D8               	btfsc	status,2,c
  8427  001F0A  0012               	return	
  8428  001F0C  0A01               	xorlw	1	; case 3
  8429  001F0E  B4D8               	btfsc	status,2,c
  8430  001F10  D7E5               	goto	i2l2974
  8431  001F12  0A06               	xorlw	6	; case 5
  8432  001F14  B4D8               	btfsc	status,2,c
  8433  001F16  0012               	return	
  8434  001F18  0A77               	xorlw	119	; case 114
  8435  001F1A  B4D8               	btfsc	status,2,c
  8436  001F1C  0012               	return	
  8437  001F1E  0A01               	xorlw	1	; case 115
  8438  001F20  B4D8               	btfsc	status,2,c
  8439  001F22  0012               	return	
  8440  001F24  0A07               	xorlw	7	; case 116
  8441  001F26  B4D8               	btfsc	status,2,c
  8442  001F28  0012               	return	
  8443  001F2A  0A01               	xorlw	1	; case 117
  8444  001F2C  0012               	return	
  8445  001F2E                     i2l4266:
  8446                           
  8447                           ; Switch size 1, requested type "space"
  8448                           ; Number of cases is 1, Range of values is 255 to 255
  8449                           ; switch strategies available:
  8450                           ; Name         Instructions Cycles
  8451                           ; simple_byte            4     3 (average)
  8452                           ;	Chosen strategy is simple_byte
  8453  001F2E  5013               	movf	??_USER_USB_CALLBACK_EVENT_HANDLER,w,c
  8454  001F30  0AFF               	xorlw	255	; case 255
  8455  001F32  0012               	return	
  8456  001F34                     __end_of_USER_USB_CALLBACK_EVENT_HANDLER:
  8457                           	opt stack 0
  8458                           pclatu	equ	0xFFB
  8459                           pclath	equ	0xFFA
  8460                           tblptru	equ	0xFF8
  8461                           tblptrh	equ	0xFF7
  8462                           tblptrl	equ	0xFF6
  8463                           tablat	equ	0xFF5
  8464                           prodh	equ	0xFF4
  8465                           prodl	equ	0xFF3
  8466                           intcon	equ	0xFF2
  8467                           postinc0	equ	0xFEE
  8468                           fsr0h	equ	0xFEA
  8469                           fsr0l	equ	0xFE9
  8470                           wreg	equ	0xFE8
  8471                           indf1	equ	0xFE7
  8472                           postdec1	equ	0xFE5
  8473                           fsr1h	equ	0xFE2
  8474                           fsr1l	equ	0xFE1
  8475                           indf2	equ	0xFDF
  8476                           postinc2	equ	0xFDE
  8477                           postdec2	equ	0xFDD
  8478                           plusw2	equ	0xFDB
  8479                           fsr2h	equ	0xFDA
  8480                           fsr2l	equ	0xFD9
  8481                           status	equ	0xFD8
  8482                           
  8483 ;; *************** function _USB_FT245_Emulation *****************
  8484 ;; Defined at:
  8485 ;;		line 197 in file "../src/blaster.c"
  8486 ;; Parameters:    Size  Location     Type
  8487 ;;		None
  8488 ;; Auto vars:     Size  Location     Type
  8489 ;;  addr            1    8[COMRAM] unsigned char 
  8490 ;; Return value:  Size  Location     Type
  8491 ;;                  1    wreg      void 
  8492 ;; Registers used:
  8493 ;;		wreg, status,2, status,0, tblptrl, tblptrh, tblptru, cstack
  8494 ;; Tracked objects:
  8495 ;;		On entry : 0/0
  8496 ;;		On exit  : 0/0
  8497 ;;		Unchanged: 0/0
  8498 ;; Data sizes:     COMRAM   BANK0   BANK1
  8499 ;;      Params:         0       0       0
  8500 ;;      Locals:         1       0       0
  8501 ;;      Temps:          0       0       0
  8502 ;;      Totals:         1       0       0
  8503 ;;Total ram usage:        1 bytes
  8504 ;; Hardware stack levels used:    1
  8505 ;; Hardware stack levels required when called:    1
  8506 ;; This function calls:
  8507 ;;		i2_EEPROM_Read
  8508 ;; This function is called by:
  8509 ;;		_USER_USB_CALLBACK_EVENT_HANDLER
  8510 ;; This function uses a non-reentrant model
  8511 ;;
  8512                           
  8513                           	psect	text40
  8514  001E62                     __ptext40:
  8515                           	opt stack 0
  8516  001E62                     _USB_FT245_Emulation:
  8517                           	opt stack 23
  8518                           
  8519                           ;blaster.c: 200: if (SetupPkt.RequestType == 2)
  8520                           
  8521                           ;incstack = 0
  8522  001E62  0102               	movlb	2	; () banked
  8523  001E64  3930               	swapf	48,w,b	;volatile
  8524  001E66  32E8               	rrcf	wreg,f,c
  8525  001E68  0B03               	andlw	3
  8526  001E6A  0A02               	xorlw	2
  8527  001E6C  A4D8               	btfss	status,2,c
  8528  001E6E  0012               	return	
  8529                           
  8530                           ; BSR set to: 2
  8531                           ;blaster.c: 201: {
  8532                           ;blaster.c: 204: if (SetupPkt.DataDir == 0)
  8533  001E70  0102               	movlb	2	; () banked
  8534  001E72  BF30               	btfsc	48,7,b	;volatile
  8535  001E74  D00B               	goto	i2l2954
  8536                           
  8537                           ; BSR set to: 2
  8538                           ;blaster.c: 205: {
  8539                           ;blaster.c: 206: { inPipes[0].pSrc.bRam = (uint8_t*)CtrlTrfData; inPipes[0].wCount.Val =
      +                           0; inPipes[0].info.Val = 0x40 | 0x80 | 0x01; };
  8540  001E76  0E38               	movlw	56
  8541  001E78  6E33               	movwf	_inPipes,c	;volatile
  8542  001E7A  0E02               	movlw	2
  8543  001E7C  6E34               	movwf	_inPipes+1,c	;volatile
  8544                           
  8545                           ; BSR set to: 2
  8546  001E7E  0E00               	movlw	0
  8547  001E80  6E38               	movwf	_inPipes+5,c	;volatile
  8548  001E82  0E00               	movlw	0
  8549  001E84  6E37               	movwf	_inPipes+4,c	;volatile
  8550                           
  8551                           ; BSR set to: 2
  8552  001E86  0EC1               	movlw	193
  8553  001E88  6E36               	movwf	_inPipes+3,c	;volatile
  8554                           
  8555                           ;blaster.c: 207: }
  8556  001E8A  D019               	goto	i2l2964
  8557  001E8C                     i2l2954:
  8558                           
  8559                           ; BSR set to: 2
  8560                           ;blaster.c: 209: else if (SetupPkt.bRequest == 0x90)
  8561  001E8C  0E90               	movlw	144
  8562  001E8E  0102               	movlb	2	; () banked
  8563  001E90  1931               	xorwf	49,w,b	;volatile
  8564  001E92  A4D8               	btfss	status,2,c
  8565  001E94  D00E               	goto	i2l2962
  8566                           
  8567                           ; BSR set to: 2
  8568                           ;blaster.c: 210: {
  8569                           ;blaster.c: 211: uint8_t addr = (SetupPkt.wIndex << 1) & 0x7e;
  8570  001E96  0102               	movlb	2	; () banked
  8571  001E98  5134               	movf	52,w,b	;volatile
  8572  001E9A  2534               	addwf	52,w,b	;volatile
  8573  001E9C  0B7E               	andlw	126
  8574  001E9E  6E09               	movwf	USB_FT245_Emulation@addr,c
  8575                           
  8576                           ; BSR set to: 2
  8577                           ;blaster.c: 212: CtrlTrfData[0] = EEPROM_Read(addr + 0);
  8578  001EA0  5009               	movf	USB_FT245_Emulation@addr,w,c
  8579  001EA2  EC58  F004         	call	i2_EEPROM_Read
  8580  001EA6  0102               	movlb	2	; () banked
  8581  001EA8  6F38               	movwf	56,b	;volatile
  8582                           
  8583                           ; BSR set to: 2
  8584                           ;blaster.c: 213: CtrlTrfData[1] = EEPROM_Read(addr + 1);
  8585  001EAA  2809               	incf	USB_FT245_Emulation@addr,w,c
  8586  001EAC  EC58  F004         	call	i2_EEPROM_Read
  8587  001EB0  D004               	goto	L36
  8588  001EB2                     i2l2962:
  8589                           
  8590                           ; BSR set to: 2
  8591                           ;blaster.c: 216: else
  8592                           ;blaster.c: 217: {
  8593                           ;blaster.c: 218: CtrlTrfData[0] = 0x36;
  8594  001EB2  0E36               	movlw	54
  8595  001EB4  0102               	movlb	2	; () banked
  8596  001EB6  6F38               	movwf	56,b	;volatile
  8597                           
  8598                           ;blaster.c: 219: CtrlTrfData[1] = 0x83;
  8599  001EB8  0E83               	movlw	131
  8600  001EBA                     L36:
  8601  001EBA  0102               	movlb	2	; () banked
  8602  001EBC  6F39               	movwf	57,b	;volatile
  8603  001EBE                     i2l2964:
  8604                           
  8605                           ; BSR set to: 2
  8606                           ;blaster.c: 220: }
  8607                           ;blaster.c: 221: { inPipes[0].pSrc.bRam = (uint8_t*)CtrlTrfData; inPipes[0].wCount.Val =
      +                           2; inPipes[0].info.Val = 0x40 | 0x80 | 0x01; };
  8608  001EBE  0E38               	movlw	56
  8609  001EC0  6E33               	movwf	_inPipes,c	;volatile
  8610  001EC2  0E02               	movlw	2
  8611  001EC4  6E34               	movwf	_inPipes+1,c	;volatile
  8612                           
  8613                           ; BSR set to: 2
  8614  001EC6  0E00               	movlw	0
  8615  001EC8  6E38               	movwf	_inPipes+5,c	;volatile
  8616  001ECA  0E02               	movlw	2
  8617  001ECC  6E37               	movwf	_inPipes+4,c	;volatile
  8618                           
  8619                           ; BSR set to: 2
  8620  001ECE  0EC1               	movlw	193
  8621  001ED0  6E36               	movwf	_inPipes+3,c	;volatile
  8622  001ED2  0012               	return	
  8623  001ED4                     __end_of_USB_FT245_Emulation:
  8624                           	opt stack 0
  8625                           pclatu	equ	0xFFB
  8626                           pclath	equ	0xFFA
  8627                           tblptru	equ	0xFF8
  8628                           tblptrh	equ	0xFF7
  8629                           tblptrl	equ	0xFF6
  8630                           tablat	equ	0xFF5
  8631                           prodh	equ	0xFF4
  8632                           prodl	equ	0xFF3
  8633                           intcon	equ	0xFF2
  8634                           postinc0	equ	0xFEE
  8635                           fsr0h	equ	0xFEA
  8636                           fsr0l	equ	0xFE9
  8637                           wreg	equ	0xFE8
  8638                           indf1	equ	0xFE7
  8639                           postdec1	equ	0xFE5
  8640                           fsr1h	equ	0xFE2
  8641                           fsr1l	equ	0xFE1
  8642                           indf2	equ	0xFDF
  8643                           postinc2	equ	0xFDE
  8644                           postdec2	equ	0xFDD
  8645                           plusw2	equ	0xFDB
  8646                           fsr2h	equ	0xFDA
  8647                           fsr2l	equ	0xFD9
  8648                           status	equ	0xFD8
  8649                           
  8650 ;; *************** function i2_EEPROM_Read *****************
  8651 ;; Defined at:
  8652 ;;		line 228 in file "../src/blaster.c"
  8653 ;; Parameters:    Size  Location     Type
  8654 ;;  addr            1    wreg     unsigned char 
  8655 ;; Auto vars:     Size  Location     Type
  8656 ;;  addr            1    7[COMRAM] unsigned char 
  8657 ;;  EEPROM_Read     1    6[COMRAM] unsigned char 
  8658 ;; Return value:  Size  Location     Type
  8659 ;;                  1    wreg      unsigned char 
  8660 ;; Registers used:
  8661 ;;		wreg, status,2, status,0, tblptrl, tblptrh, tblptru
  8662 ;; Tracked objects:
  8663 ;;		On entry : 0/0
  8664 ;;		On exit  : 0/0
  8665 ;;		Unchanged: 0/0
  8666 ;; Data sizes:     COMRAM   BANK0   BANK1
  8667 ;;      Params:         0       0       0
  8668 ;;      Locals:         2       0       0
  8669 ;;      Temps:          6       0       0
  8670 ;;      Totals:         8       0       0
  8671 ;;Total ram usage:        8 bytes
  8672 ;; Hardware stack levels used:    1
  8673 ;; This function calls:
  8674 ;;		Nothing
  8675 ;; This function is called by:
  8676 ;;		_USB_FT245_Emulation
  8677 ;; This function uses a non-reentrant model
  8678 ;;
  8679                           
  8680                           	psect	text41
  8681  0008B0                     __ptext41:
  8682                           	opt stack 0
  8683  0008B0                     i2_EEPROM_Read:
  8684                           	opt stack 23
  8685                           
  8686                           ; BSR set to: 2
  8687                           ;incstack = 0
  8688                           ;i2EEPROM_Read@addr stored from wreg
  8689  0008B0  6E08               	movwf	i2EEPROM_Read@addr,c
  8690                           
  8691                           ;blaster.c: 230: uint8_t data = 0;
  8692  0008B2  0E00               	movlw	0
  8693  0008B4  6E07               	movwf	i2EEPROM_Read@data,c
  8694                           
  8695                           ;blaster.c: 232: switch(addr)
  8696  0008B6  D068               	goto	i2l2902
  8697  0008B8                     i2l2858:
  8698  0008B8  0E00               	movlw	0
  8699  0008BA  D045               	goto	L47
  8700  0008BC                     i2l2860:
  8701  0008BC  0ED1               	movlw	low (_device_dsc+8)
  8702  0008BE  6E01               	movwf	??i2_EEPROM_Read& (0+255),c
  8703  0008C0  0E3F               	movlw	high (_device_dsc+8)
  8704  0008C2                     L59:
  8705  0008C2  6E02               	movwf	(??i2_EEPROM_Read+1)& (0+255),c
  8706  0008C4  D02E               	goto	L53
  8707  0008C6                     i2l2862:
  8708  0008C6  0ED1               	movlw	low (_device_dsc+8)
  8709  0008C8  6E01               	movwf	??i2_EEPROM_Read& (0+255),c
  8710  0008CA  0E3F               	movlw	high (_device_dsc+8)
  8711  0008CC  D025               	goto	L65
  8712  0008CE                     i2l2864:
  8713  0008CE  0ED3               	movlw	low (_device_dsc+10)
  8714  0008D0  6E01               	movwf	??i2_EEPROM_Read& (0+255),c
  8715  0008D2  0E3F               	movlw	high (_device_dsc+10)
  8716  0008D4  D7F6               	goto	L59
  8717  0008D6                     i2l2866:
  8718  0008D6  0ED3               	movlw	low (_device_dsc+10)
  8719  0008D8  6E01               	movwf	??i2_EEPROM_Read& (0+255),c
  8720  0008DA  0E3F               	movlw	high (_device_dsc+10)
  8721  0008DC  D01D               	goto	L65
  8722  0008DE                     i2l2868:
  8723  0008DE  0ED5               	movlw	low (_device_dsc+12)
  8724  0008E0  6E01               	movwf	??i2_EEPROM_Read& (0+255),c
  8725  0008E2  0E3F               	movlw	high (_device_dsc+12)
  8726  0008E4  D7EE               	goto	L59
  8727  0008E6                     i2l2870:
  8728  0008E6  0ED5               	movlw	low (_device_dsc+12)
  8729  0008E8  6E01               	movwf	??i2_EEPROM_Read& (0+255),c
  8730  0008EA  0E3F               	movlw	high (_device_dsc+12)
  8731  0008EC  D015               	goto	L65
  8732  0008EE                     i2l2872:
  8733  0008EE  0E98               	movlw	low (_configDescriptor1+7)
  8734  0008F0  6EF6               	movwf	tblptrl,c
  8735  0008F2  0E3F               	movlw	high (_configDescriptor1+7)
  8736  0008F4  D041               	goto	L55
  8737  0008F6                     L43:
  8738  0008F6                     	if	0	;tblptru may be non-zero
  8739  0008F6                     	endif
  8740  0008F6                     	if	0	;tblptru may be non-zero
  8741  0008F6                     	endif
  8742  0008F6  0008               	tblrd		*
  8743  0008F8  CFF5 F007          	movff	tablat,i2EEPROM_Read@data
  8744  0008FC  D089               	goto	i2l2904
  8745  0008FE                     i2l2874:
  8746  0008FE  0E99               	movlw	low (_configDescriptor1+8)
  8747  000900  6EF6               	movwf	tblptrl,c
  8748  000902  0E3F               	movlw	high (_configDescriptor1+8)
  8749  000904  D039               	goto	L55
  8750  000906                     i2l2876:
  8751  000906  0E1C               	movlw	28
  8752  000908  D01E               	goto	L47
  8753  00090A                     i2l2880:
  8754  00090A  0ECB               	movlw	low (_device_dsc+2)
  8755  00090C  6E01               	movwf	??i2_EEPROM_Read& (0+255),c
  8756  00090E  0E3F               	movlw	high (_device_dsc+2)
  8757  000910  D7D8               	goto	L59
  8758  000912                     i2l2882:
  8759  000912  0ECB               	movlw	low (_device_dsc+2)
  8760  000914  6E01               	movwf	??i2_EEPROM_Read& (0+255),c
  8761  000916  0E3F               	movlw	high (_device_dsc+2)
  8762  000918                     L65:
  8763  000918  6E02               	movwf	(??i2_EEPROM_Read+1)& (0+255),c
  8764  00091A  0E01               	movlw	1
  8765  00091C  2601               	addwf	??i2_EEPROM_Read,f,c
  8766  00091E  0E00               	movlw	0
  8767  000920  2202               	addwfc	??i2_EEPROM_Read+1,f,c
  8768  000922                     L53:
  8769  000922  C001  FFF6         	movff	??i2_EEPROM_Read,tblptrl
  8770  000926  C002  FFF7         	movff	??i2_EEPROM_Read+1,tblptrh
  8771  00092A  D7E5               	goto	L43
  8772  00092C                     i2l2884:
  8773  00092C  0E94               	movlw	148
  8774  00092E  D00B               	goto	L47
  8775  000930                     i2l2886:
  8776  000930  0E89               	movlw	low (_USB_SD_Ptr+2)
  8777  000932  6EF6               	movwf	tblptrl,c
  8778  000934  0E3F               	movlw	high (_USB_SD_Ptr+2)
  8779  000936  D020               	goto	L55
  8780  000938                     i2l2888:
  8781  000938  0E89               	movlw	low (_USB_SD_Ptr+2)
  8782  00093A  6EF6               	movwf	tblptrl,c
  8783  00093C  0E3F               	movlw	high (_USB_SD_Ptr+2)
  8784  00093E  6EF7               	movwf	tblptrh,c
  8785  000940                     	if	0	;tblptru may be non-zero
  8786  000940                     	endif
  8787  000940                     	if	0	;tblptru may be non-zero
  8788  000940                     	endif
  8789  000940  0008               	tblrd		*
  8790  000942  50F5               	movf	tablat,w,c
  8791  000944  D014               	goto	L48
  8792  000946                     L47:
  8793  000946  6E07               	movwf	i2EEPROM_Read@data,c
  8794  000948  D063               	goto	i2l2904
  8795  00094A                     i2l2890:
  8796  00094A  0E8B               	movlw	low (_USB_SD_Ptr+4)
  8797  00094C  6EF6               	movwf	tblptrl,c
  8798  00094E  0E3F               	movlw	high (_USB_SD_Ptr+4)
  8799  000950  D013               	goto	L55
  8800  000952                     i2l2892:
  8801  000952  0E8B               	movlw	low (_USB_SD_Ptr+4)
  8802  000954  6EF6               	movwf	tblptrl,c
  8803  000956  0E3F               	movlw	high (_USB_SD_Ptr+4)
  8804  000958  6EF7               	movwf	tblptrh,c
  8805  00095A                     	if	0	;tblptru may be non-zero
  8806  00095A                     	endif
  8807  00095A                     	if	0	;tblptru may be non-zero
  8808  00095A                     	endif
  8809  00095A  0008               	tblrd		*
  8810  00095C  CFF5 F001          	movff	tablat,??i2_EEPROM_Read
  8811  000960  0E89               	movlw	low (_USB_SD_Ptr+2)
  8812  000962  6EF6               	movwf	tblptrl,c
  8813  000964  0E3F               	movlw	high (_USB_SD_Ptr+2)
  8814  000966  6EF7               	movwf	tblptrh,c
  8815  000968                     	if	0	;tblptru may be non-zero
  8816  000968                     	endif
  8817  000968                     	if	0	;tblptru may be non-zero
  8818  000968                     	endif
  8819  000968  0008               	tblrd		*
  8820  00096A  50F5               	movf	tablat,w,c
  8821  00096C  2401               	addwf	??i2_EEPROM_Read,w,c
  8822  00096E                     L48:
  8823  00096E  0F94               	addlw	148
  8824  000970  D7EA               	goto	L47
  8825  000972                     i2l2894:
  8826  000972  0E8D               	movlw	low (_USB_SD_Ptr+6)
  8827  000974  6EF6               	movwf	tblptrl,c
  8828  000976  0E3F               	movlw	high (_USB_SD_Ptr+6)
  8829  000978                     L55:
  8830  000978  6EF7               	movwf	tblptrh,c
  8831  00097A  D7BD               	goto	L43
  8832  00097C                     i2l238:
  8833  00097C  C09A  F007         	movff	_eeprom_checksum,i2EEPROM_Read@data
  8834  000980  D047               	goto	i2l2904
  8835  000982                     i2l2896:
  8836  000982  0100               	movlb	0	; () banked
  8837  000984  519B               	movf	(_eeprom_checksum+1)& (0+255),w,b
  8838  000986  D7DF               	goto	L47
  8839  000988                     i2l2902:
  8840  000988  5008               	movf	i2EEPROM_Read@addr,w,c
  8841                           
  8842                           ; Switch size 1, requested type "space"
  8843                           ; Number of cases is 22, Range of values is 0 to 127
  8844                           ; switch strategies available:
  8845                           ; Name         Instructions Cycles
  8846                           ; simple_byte           67    34 (average)
  8847                           ;	Chosen strategy is simple_byte
  8848  00098A  0A00               	xorlw	0	; case 0
  8849  00098C  B4D8               	btfsc	status,2,c
  8850  00098E  D794               	goto	i2l2858
  8851  000990  0A01               	xorlw	1	; case 1
  8852  000992  B4D8               	btfsc	status,2,c
  8853  000994  D791               	goto	i2l2858
  8854  000996  0A03               	xorlw	3	; case 2
  8855  000998  B4D8               	btfsc	status,2,c
  8856  00099A  D790               	goto	i2l2860
  8857  00099C  0A01               	xorlw	1	; case 3
  8858  00099E  B4D8               	btfsc	status,2,c
  8859  0009A0  D792               	goto	i2l2862
  8860  0009A2  0A07               	xorlw	7	; case 4
  8861  0009A4  B4D8               	btfsc	status,2,c
  8862  0009A6  D793               	goto	i2l2864
  8863  0009A8  0A01               	xorlw	1	; case 5
  8864  0009AA  B4D8               	btfsc	status,2,c
  8865  0009AC  D794               	goto	i2l2866
  8866  0009AE  0A03               	xorlw	3	; case 6
  8867  0009B0  B4D8               	btfsc	status,2,c
  8868  0009B2  D795               	goto	i2l2868
  8869  0009B4  0A01               	xorlw	1	; case 7
  8870  0009B6  B4D8               	btfsc	status,2,c
  8871  0009B8  D796               	goto	i2l2870
  8872  0009BA  0A0F               	xorlw	15	; case 8
  8873  0009BC  B4D8               	btfsc	status,2,c
  8874  0009BE  D797               	goto	i2l2872
  8875  0009C0  0A01               	xorlw	1	; case 9
  8876  0009C2  B4D8               	btfsc	status,2,c
  8877  0009C4  D79C               	goto	i2l2874
  8878  0009C6  0A03               	xorlw	3	; case 10
  8879  0009C8  B4D8               	btfsc	status,2,c
  8880  0009CA  D79D               	goto	i2l2876
  8881  0009CC  0A01               	xorlw	1	; case 11
  8882  0009CE  B4D8               	btfsc	status,2,c
  8883  0009D0  D773               	goto	i2l2858
  8884  0009D2  0A07               	xorlw	7	; case 12
  8885  0009D4  B4D8               	btfsc	status,2,c
  8886  0009D6  D799               	goto	i2l2880
  8887  0009D8  0A01               	xorlw	1	; case 13
  8888  0009DA  B4D8               	btfsc	status,2,c
  8889  0009DC  D79A               	goto	i2l2882
  8890  0009DE  0A03               	xorlw	3	; case 14
  8891  0009E0  B4D8               	btfsc	status,2,c
  8892  0009E2  D7A4               	goto	i2l2884
  8893  0009E4  0A01               	xorlw	1	; case 15
  8894  0009E6  B4D8               	btfsc	status,2,c
  8895  0009E8  D7A3               	goto	i2l2886
  8896  0009EA  0A1F               	xorlw	31	; case 16
  8897  0009EC  B4D8               	btfsc	status,2,c
  8898  0009EE  D7A4               	goto	i2l2888
  8899  0009F0  0A01               	xorlw	1	; case 17
  8900  0009F2  B4D8               	btfsc	status,2,c
  8901  0009F4  D7AA               	goto	i2l2890
  8902  0009F6  0A03               	xorlw	3	; case 18
  8903  0009F8  B4D8               	btfsc	status,2,c
  8904  0009FA  D7AB               	goto	i2l2892
  8905  0009FC  0A01               	xorlw	1	; case 19
  8906  0009FE  B4D8               	btfsc	status,2,c
  8907  000A00  D7B8               	goto	i2l2894
  8908  000A02  0A6D               	xorlw	109	; case 126
  8909  000A04  B4D8               	btfsc	status,2,c
  8910  000A06  D7BA               	goto	i2l238
  8911  000A08  0A01               	xorlw	1	; case 127
  8912  000A0A  B4D8               	btfsc	status,2,c
  8913  000A0C  D7BA               	goto	i2l2896
  8914  000A0E  D754               	goto	i2l2858
  8915  000A10                     i2l2904:
  8916                           
  8917                           ;blaster.c: 259: if (((14 + 6) <= addr) && (addr < ((14 + 6) + (USB_SD_Ptr[1][0]))))
  8918  000A10  0E13               	movlw	19
  8919  000A12  6408               	cpfsgt	i2EEPROM_Read@addr,c
  8920  000A14  D028               	goto	i2l2910
  8921  000A16  0E89               	movlw	low (_USB_SD_Ptr+2)
  8922  000A18  6EF6               	movwf	tblptrl,c
  8923  000A1A  0E3F               	movlw	high (_USB_SD_Ptr+2)
  8924  000A1C  6EF7               	movwf	tblptrh,c
  8925  000A1E                     	if	0	;tblptru may be non-zero
  8926  000A1E                     	endif
  8927  000A1E                     	if	0	;tblptru may be non-zero
  8928  000A1E                     	endif
  8929  000A1E  0008               	tblrd		*
  8930  000A20  50F5               	movf	tablat,w,c
  8931  000A22  6E01               	movwf	??i2_EEPROM_Read& (0+255),c
  8932  000A24  6A02               	clrf	(??i2_EEPROM_Read+1)& (0+255),c
  8933  000A26  0E14               	movlw	20
  8934  000A28  2601               	addwf	??i2_EEPROM_Read,f,c
  8935  000A2A  0E00               	movlw	0
  8936  000A2C  2202               	addwfc	??i2_EEPROM_Read+1,f,c
  8937  000A2E  5008               	movf	i2EEPROM_Read@addr,w,c
  8938  000A30  6E03               	movwf	(??i2_EEPROM_Read+2)& (0+255),c
  8939  000A32  6A04               	clrf	(??i2_EEPROM_Read+3)& (0+255),c
  8940  000A34  5001               	movf	??i2_EEPROM_Read,w,c
  8941  000A36  5C03               	subwf	??i2_EEPROM_Read+2,w,c
  8942  000A38  5004               	movf	??i2_EEPROM_Read+3,w,c
  8943  000A3A  0A80               	xorlw	128
  8944  000A3C  6E05               	movwf	(??i2_EEPROM_Read+4)& (0+255),c
  8945  000A3E  5002               	movf	??i2_EEPROM_Read+1,w,c
  8946  000A40  0A80               	xorlw	128
  8947  000A42  5805               	subwfb	(??i2_EEPROM_Read+4)& (0+255),w,c
  8948  000A44  B0D8               	btfsc	status,0,c
  8949  000A46  D00F               	goto	i2l2910
  8950                           
  8951                           ;blaster.c: 260: {
  8952                           ;blaster.c: 261: data = USB_SD_Ptr[1][addr - (14 + 6)];
  8953  000A48  0EEC               	movlw	236
  8954  000A4A  6E01               	movwf	??i2_EEPROM_Read& (0+255),c
  8955  000A4C  0EFF               	movlw	255
  8956  000A4E  6E02               	movwf	(??i2_EEPROM_Read+1)& (0+255),c
  8957  000A50  5008               	movf	i2EEPROM_Read@addr,w,c
  8958  000A52  6E03               	movwf	(??i2_EEPROM_Read+2)& (0+255),c
  8959  000A54  6A04               	clrf	(??i2_EEPROM_Read+3)& (0+255),c
  8960  000A56  5001               	movf	??i2_EEPROM_Read,w,c
  8961  000A58  2603               	addwf	??i2_EEPROM_Read+2,f,c
  8962  000A5A  5002               	movf	??i2_EEPROM_Read+1,w,c
  8963  000A5C  2204               	addwfc	??i2_EEPROM_Read+3,f,c
  8964  000A5E  0E89               	movlw	low (_USB_SD_Ptr+2)
  8965  000A60  6EF6               	movwf	tblptrl,c
  8966  000A62  0E3F               	movlw	high (_USB_SD_Ptr+2)
  8967  000A64  D0C6               	goto	L50
  8968  000A66                     i2l2910:
  8969                           
  8970                           ;blaster.c: 263: else if ((((14 + 6) + (USB_SD_Ptr[1][0])) <= addr) && (addr < (((14 + 6
      +                          ) + (USB_SD_Ptr[1][0])) + (USB_SD_Ptr[2][0]))))
  8971  000A66  0E89               	movlw	low (_USB_SD_Ptr+2)
  8972  000A68  6EF6               	movwf	tblptrl,c
  8973  000A6A  0E3F               	movlw	high (_USB_SD_Ptr+2)
  8974  000A6C  6EF7               	movwf	tblptrh,c
  8975  000A6E                     	if	0	;tblptru may be non-zero
  8976  000A6E                     	endif
  8977  000A6E                     	if	0	;tblptru may be non-zero
  8978  000A6E                     	endif
  8979  000A6E  0008               	tblrd		*
  8980  000A70  50F5               	movf	tablat,w,c
  8981  000A72  6E01               	movwf	??i2_EEPROM_Read& (0+255),c
  8982  000A74  6A02               	clrf	(??i2_EEPROM_Read+1)& (0+255),c
  8983  000A76  0E14               	movlw	20
  8984  000A78  2601               	addwf	??i2_EEPROM_Read,f,c
  8985  000A7A  0E00               	movlw	0
  8986  000A7C  2202               	addwfc	??i2_EEPROM_Read+1,f,c
  8987  000A7E  5008               	movf	i2EEPROM_Read@addr,w,c
  8988  000A80  6E03               	movwf	(??i2_EEPROM_Read+2)& (0+255),c
  8989  000A82  6A04               	clrf	(??i2_EEPROM_Read+3)& (0+255),c
  8990  000A84  5001               	movf	??i2_EEPROM_Read,w,c
  8991  000A86  5C03               	subwf	??i2_EEPROM_Read+2,w,c
  8992  000A88  5004               	movf	??i2_EEPROM_Read+3,w,c
  8993  000A8A  0A80               	xorlw	128
  8994  000A8C  6E05               	movwf	(??i2_EEPROM_Read+4)& (0+255),c
  8995  000A8E  5002               	movf	??i2_EEPROM_Read+1,w,c
  8996  000A90  0A80               	xorlw	128
  8997  000A92  5805               	subwfb	(??i2_EEPROM_Read+4)& (0+255),w,c
  8998  000A94  A0D8               	btfss	status,0,c
  8999  000A96  D03D               	goto	i2l2916
  9000  000A98  0E89               	movlw	low (_USB_SD_Ptr+2)
  9001  000A9A  6EF6               	movwf	tblptrl,c
  9002  000A9C  0E3F               	movlw	high (_USB_SD_Ptr+2)
  9003  000A9E  6EF7               	movwf	tblptrh,c
  9004  000AA0                     	if	0	;tblptru may be non-zero
  9005  000AA0                     	endif
  9006  000AA0                     	if	0	;tblptru may be non-zero
  9007  000AA0                     	endif
  9008  000AA0  0008               	tblrd		*
  9009  000AA2  50F5               	movf	tablat,w,c
  9010  000AA4  6E01               	movwf	??i2_EEPROM_Read& (0+255),c
  9011  000AA6  6A02               	clrf	(??i2_EEPROM_Read+1)& (0+255),c
  9012  000AA8  0E8B               	movlw	low (_USB_SD_Ptr+4)
  9013  000AAA  6EF6               	movwf	tblptrl,c
  9014  000AAC  0E3F               	movlw	high (_USB_SD_Ptr+4)
  9015  000AAE  6EF7               	movwf	tblptrh,c
  9016  000AB0                     	if	0	;tblptru may be non-zero
  9017  000AB0                     	endif
  9018  000AB0                     	if	0	;tblptru may be non-zero
  9019  000AB0                     	endif
  9020  000AB0  0008               	tblrd		*
  9021  000AB2  50F5               	movf	tablat,w,c
  9022  000AB4  2601               	addwf	??i2_EEPROM_Read,f,c
  9023  000AB6  0E00               	movlw	0
  9024  000AB8  2202               	addwfc	??i2_EEPROM_Read+1,f,c
  9025  000ABA  0E14               	movlw	20
  9026  000ABC  2601               	addwf	??i2_EEPROM_Read,f,c
  9027  000ABE  0E00               	movlw	0
  9028  000AC0  2202               	addwfc	??i2_EEPROM_Read+1,f,c
  9029  000AC2  5008               	movf	i2EEPROM_Read@addr,w,c
  9030  000AC4  6E03               	movwf	(??i2_EEPROM_Read+2)& (0+255),c
  9031  000AC6  6A04               	clrf	(??i2_EEPROM_Read+3)& (0+255),c
  9032  000AC8  5001               	movf	??i2_EEPROM_Read,w,c
  9033  000ACA  5C03               	subwf	??i2_EEPROM_Read+2,w,c
  9034  000ACC  5004               	movf	??i2_EEPROM_Read+3,w,c
  9035  000ACE  0A80               	xorlw	128
  9036  000AD0  6E05               	movwf	(??i2_EEPROM_Read+4)& (0+255),c
  9037  000AD2  5002               	movf	??i2_EEPROM_Read+1,w,c
  9038  000AD4  0A80               	xorlw	128
  9039  000AD6  5805               	subwfb	(??i2_EEPROM_Read+4)& (0+255),w,c
  9040  000AD8  B0D8               	btfsc	status,0,c
  9041  000ADA  D01B               	goto	i2l2916
  9042                           
  9043                           ;blaster.c: 264: {
  9044                           ;blaster.c: 265: data = USB_SD_Ptr[2][addr - ((14 + 6) + (USB_SD_Ptr[1][0]))];
  9045  000ADC  0E89               	movlw	low (_USB_SD_Ptr+2)
  9046  000ADE  6EF6               	movwf	tblptrl,c
  9047  000AE0  0E3F               	movlw	high (_USB_SD_Ptr+2)
  9048  000AE2  6EF7               	movwf	tblptrh,c
  9049  000AE4                     	if	0	;tblptru may be non-zero
  9050  000AE4                     	endif
  9051  000AE4                     	if	0	;tblptru may be non-zero
  9052  000AE4                     	endif
  9053  000AE4  0008               	tblrd		*
  9054  000AE6  50F5               	movf	tablat,w,c
  9055  000AE8  6E01               	movwf	??i2_EEPROM_Read& (0+255),c
  9056  000AEA  6A02               	clrf	(??i2_EEPROM_Read+1)& (0+255),c
  9057  000AEC  0E14               	movlw	20
  9058  000AEE  2601               	addwf	??i2_EEPROM_Read,f,c
  9059  000AF0  0E00               	movlw	0
  9060  000AF2  2202               	addwfc	??i2_EEPROM_Read+1,f,c
  9061  000AF4  1E01               	comf	??i2_EEPROM_Read,f,c
  9062  000AF6  1E02               	comf	??i2_EEPROM_Read+1,f,c
  9063  000AF8  4A01               	infsnz	??i2_EEPROM_Read,f,c
  9064  000AFA  2A02               	incf	??i2_EEPROM_Read+1,f,c
  9065  000AFC  5008               	movf	i2EEPROM_Read@addr,w,c
  9066  000AFE  6E03               	movwf	(??i2_EEPROM_Read+2)& (0+255),c
  9067  000B00  6A04               	clrf	(??i2_EEPROM_Read+3)& (0+255),c
  9068  000B02  5001               	movf	??i2_EEPROM_Read,w,c
  9069  000B04  2603               	addwf	??i2_EEPROM_Read+2,f,c
  9070  000B06  5002               	movf	??i2_EEPROM_Read+1,w,c
  9071  000B08  2204               	addwfc	??i2_EEPROM_Read+3,f,c
  9072  000B0A  0E8B               	movlw	low (_USB_SD_Ptr+4)
  9073  000B0C  6EF6               	movwf	tblptrl,c
  9074  000B0E  0E3F               	movlw	high (_USB_SD_Ptr+4)
  9075  000B10  D070               	goto	L50
  9076  000B12                     i2l2916:
  9077                           
  9078                           ;blaster.c: 267: else if (((((14 + 6) + (USB_SD_Ptr[1][0])) + (USB_SD_Ptr[2][0])) <= add
      +                          r) && (addr < ((((14 + 6) + (USB_SD_Ptr[1][0])) + (USB_SD_Ptr[2][0])) + (USB_SD_Ptr[3][0
      +                          ]))))
  9079  000B12  0E89               	movlw	low (_USB_SD_Ptr+2)
  9080  000B14  6EF6               	movwf	tblptrl,c
  9081  000B16  0E3F               	movlw	high (_USB_SD_Ptr+2)
  9082  000B18  6EF7               	movwf	tblptrh,c
  9083  000B1A                     	if	0	;tblptru may be non-zero
  9084  000B1A                     	endif
  9085  000B1A                     	if	0	;tblptru may be non-zero
  9086  000B1A                     	endif
  9087  000B1A  0008               	tblrd		*
  9088  000B1C  50F5               	movf	tablat,w,c
  9089  000B1E  6E01               	movwf	??i2_EEPROM_Read& (0+255),c
  9090  000B20  6A02               	clrf	(??i2_EEPROM_Read+1)& (0+255),c
  9091  000B22  0E8B               	movlw	low (_USB_SD_Ptr+4)
  9092  000B24  6EF6               	movwf	tblptrl,c
  9093  000B26  0E3F               	movlw	high (_USB_SD_Ptr+4)
  9094  000B28  6EF7               	movwf	tblptrh,c
  9095  000B2A                     	if	0	;tblptru may be non-zero
  9096  000B2A                     	endif
  9097  000B2A                     	if	0	;tblptru may be non-zero
  9098  000B2A                     	endif
  9099  000B2A  0008               	tblrd		*
  9100  000B2C  50F5               	movf	tablat,w,c
  9101  000B2E  2601               	addwf	??i2_EEPROM_Read,f,c
  9102  000B30  0E00               	movlw	0
  9103  000B32  2202               	addwfc	??i2_EEPROM_Read+1,f,c
  9104  000B34  0E14               	movlw	20
  9105  000B36  2601               	addwf	??i2_EEPROM_Read,f,c
  9106  000B38  0E00               	movlw	0
  9107  000B3A  2202               	addwfc	??i2_EEPROM_Read+1,f,c
  9108  000B3C  5008               	movf	i2EEPROM_Read@addr,w,c
  9109  000B3E  6E03               	movwf	(??i2_EEPROM_Read+2)& (0+255),c
  9110  000B40  6A04               	clrf	(??i2_EEPROM_Read+3)& (0+255),c
  9111  000B42  5001               	movf	??i2_EEPROM_Read,w,c
  9112  000B44  5C03               	subwf	??i2_EEPROM_Read+2,w,c
  9113  000B46  5004               	movf	??i2_EEPROM_Read+3,w,c
  9114  000B48  0A80               	xorlw	128
  9115  000B4A  6E05               	movwf	(??i2_EEPROM_Read+4)& (0+255),c
  9116  000B4C  5002               	movf	??i2_EEPROM_Read+1,w,c
  9117  000B4E  0A80               	xorlw	128
  9118  000B50  5805               	subwfb	(??i2_EEPROM_Read+4)& (0+255),w,c
  9119  000B52  A0D8               	btfss	status,0,c
  9120  000B54  D060               	goto	i2l2922
  9121  000B56  0E89               	movlw	low (_USB_SD_Ptr+2)
  9122  000B58  6EF6               	movwf	tblptrl,c
  9123  000B5A  0E3F               	movlw	high (_USB_SD_Ptr+2)
  9124  000B5C  6EF7               	movwf	tblptrh,c
  9125  000B5E                     	if	0	;tblptru may be non-zero
  9126  000B5E                     	endif
  9127  000B5E                     	if	0	;tblptru may be non-zero
  9128  000B5E                     	endif
  9129  000B5E  0008               	tblrd		*
  9130  000B60  50F5               	movf	tablat,w,c
  9131  000B62  6E01               	movwf	??i2_EEPROM_Read& (0+255),c
  9132  000B64  6A02               	clrf	(??i2_EEPROM_Read+1)& (0+255),c
  9133  000B66  0E8B               	movlw	low (_USB_SD_Ptr+4)
  9134  000B68  6EF6               	movwf	tblptrl,c
  9135  000B6A  0E3F               	movlw	high (_USB_SD_Ptr+4)
  9136  000B6C  6EF7               	movwf	tblptrh,c
  9137  000B6E                     	if	0	;tblptru may be non-zero
  9138  000B6E                     	endif
  9139  000B6E                     	if	0	;tblptru may be non-zero
  9140  000B6E                     	endif
  9141  000B6E  0008               	tblrd		*
  9142  000B70  50F5               	movf	tablat,w,c
  9143  000B72  2601               	addwf	??i2_EEPROM_Read,f,c
  9144  000B74  0E00               	movlw	0
  9145  000B76  2202               	addwfc	??i2_EEPROM_Read+1,f,c
  9146  000B78  0E8D               	movlw	low (_USB_SD_Ptr+6)
  9147  000B7A  6EF6               	movwf	tblptrl,c
  9148  000B7C  0E3F               	movlw	high (_USB_SD_Ptr+6)
  9149  000B7E  6EF7               	movwf	tblptrh,c
  9150  000B80                     	if	0	;tblptru may be non-zero
  9151  000B80                     	endif
  9152  000B80                     	if	0	;tblptru may be non-zero
  9153  000B80                     	endif
  9154  000B80  0008               	tblrd		*
  9155  000B82  50F5               	movf	tablat,w,c
  9156  000B84  2601               	addwf	??i2_EEPROM_Read,f,c
  9157  000B86  0E00               	movlw	0
  9158  000B88  2202               	addwfc	??i2_EEPROM_Read+1,f,c
  9159  000B8A  0E14               	movlw	20
  9160  000B8C  2601               	addwf	??i2_EEPROM_Read,f,c
  9161  000B8E  0E00               	movlw	0
  9162  000B90  2202               	addwfc	??i2_EEPROM_Read+1,f,c
  9163  000B92  5008               	movf	i2EEPROM_Read@addr,w,c
  9164  000B94  6E03               	movwf	(??i2_EEPROM_Read+2)& (0+255),c
  9165  000B96  6A04               	clrf	(??i2_EEPROM_Read+3)& (0+255),c
  9166  000B98  5001               	movf	??i2_EEPROM_Read,w,c
  9167  000B9A  5C03               	subwf	??i2_EEPROM_Read+2,w,c
  9168  000B9C  5004               	movf	??i2_EEPROM_Read+3,w,c
  9169  000B9E  0A80               	xorlw	128
  9170  000BA0  6E05               	movwf	(??i2_EEPROM_Read+4)& (0+255),c
  9171  000BA2  5002               	movf	??i2_EEPROM_Read+1,w,c
  9172  000BA4  0A80               	xorlw	128
  9173  000BA6  5805               	subwfb	(??i2_EEPROM_Read+4)& (0+255),w,c
  9174  000BA8  B0D8               	btfsc	status,0,c
  9175  000BAA  D035               	goto	i2l2922
  9176                           
  9177                           ;blaster.c: 268: {
  9178                           ;blaster.c: 269: data = USB_SD_Ptr[3][addr - (((14 + 6) + (USB_SD_Ptr[1][0])) + (USB_SD_
      +                          Ptr[2][0]))];
  9179  000BAC  0E89               	movlw	low (_USB_SD_Ptr+2)
  9180  000BAE  6EF6               	movwf	tblptrl,c
  9181  000BB0  0E3F               	movlw	high (_USB_SD_Ptr+2)
  9182  000BB2  6EF7               	movwf	tblptrh,c
  9183  000BB4                     	if	0	;tblptru may be non-zero
  9184  000BB4                     	endif
  9185  000BB4                     	if	0	;tblptru may be non-zero
  9186  000BB4                     	endif
  9187  000BB4  0008               	tblrd		*
  9188  000BB6  50F5               	movf	tablat,w,c
  9189  000BB8  6E01               	movwf	??i2_EEPROM_Read& (0+255),c
  9190  000BBA  6A02               	clrf	(??i2_EEPROM_Read+1)& (0+255),c
  9191  000BBC  0E8B               	movlw	low (_USB_SD_Ptr+4)
  9192  000BBE  6EF6               	movwf	tblptrl,c
  9193  000BC0  0E3F               	movlw	high (_USB_SD_Ptr+4)
  9194  000BC2  6EF7               	movwf	tblptrh,c
  9195  000BC4                     	if	0	;tblptru may be non-zero
  9196  000BC4                     	endif
  9197  000BC4                     	if	0	;tblptru may be non-zero
  9198  000BC4                     	endif
  9199  000BC4  0008               	tblrd		*
  9200  000BC6  50F5               	movf	tablat,w,c
  9201  000BC8  2601               	addwf	??i2_EEPROM_Read,f,c
  9202  000BCA  0E00               	movlw	0
  9203  000BCC  2202               	addwfc	??i2_EEPROM_Read+1,f,c
  9204  000BCE  0E14               	movlw	20
  9205  000BD0  2601               	addwf	??i2_EEPROM_Read,f,c
  9206  000BD2  0E00               	movlw	0
  9207  000BD4  2202               	addwfc	??i2_EEPROM_Read+1,f,c
  9208  000BD6  1E01               	comf	??i2_EEPROM_Read,f,c
  9209  000BD8  1E02               	comf	??i2_EEPROM_Read+1,f,c
  9210  000BDA  4A01               	infsnz	??i2_EEPROM_Read,f,c
  9211  000BDC  2A02               	incf	??i2_EEPROM_Read+1,f,c
  9212  000BDE  5008               	movf	i2EEPROM_Read@addr,w,c
  9213  000BE0  6E03               	movwf	(??i2_EEPROM_Read+2)& (0+255),c
  9214  000BE2  6A04               	clrf	(??i2_EEPROM_Read+3)& (0+255),c
  9215  000BE4  5001               	movf	??i2_EEPROM_Read,w,c
  9216  000BE6  2603               	addwf	??i2_EEPROM_Read+2,f,c
  9217  000BE8  5002               	movf	??i2_EEPROM_Read+1,w,c
  9218  000BEA  2204               	addwfc	??i2_EEPROM_Read+3,f,c
  9219  000BEC  0E8D               	movlw	low (_USB_SD_Ptr+6)
  9220  000BEE  6EF6               	movwf	tblptrl,c
  9221  000BF0  0E3F               	movlw	high (_USB_SD_Ptr+6)
  9222  000BF2                     L50:
  9223  000BF2  6EF7               	movwf	tblptrh,c
  9224  000BF4                     	if	0	;tblptru may be non-zero
  9225  000BF4                     	endif
  9226  000BF4                     	if	0	;tblptru may be non-zero
  9227  000BF4                     	endif
  9228  000BF4  0009               	tblrd		*+
  9229  000BF6  CFF5 F005          	movff	tablat,??i2_EEPROM_Read+4
  9230  000BFA  0009               	tblrd		*+
  9231  000BFC  CFF5 F006          	movff	tablat,??i2_EEPROM_Read+5
  9232  000C00  5003               	movf	??i2_EEPROM_Read+2,w,c
  9233  000C02  2605               	addwf	??i2_EEPROM_Read+4,f,c
  9234  000C04  5004               	movf	??i2_EEPROM_Read+3,w,c
  9235  000C06  2206               	addwfc	??i2_EEPROM_Read+5,f,c
  9236  000C08  C005  FFF6         	movff	??i2_EEPROM_Read+4,tblptrl
  9237  000C0C  C006  FFF7         	movff	??i2_EEPROM_Read+5,tblptrh
  9238  000C10                     	if	0	;tblptru may be non-zero
  9239  000C10                     	endif
  9240  000C10                     	if	0	;tblptru may be non-zero
  9241  000C10                     	endif
  9242  000C10  0008               	tblrd		*
  9243  000C12  CFF5 F007          	movff	tablat,i2EEPROM_Read@data
  9244  000C16                     i2l2922:
  9245                           
  9246                           ;blaster.c: 270: }
  9247                           ;blaster.c: 272: return data;
  9248  000C16  5007               	movf	i2EEPROM_Read@data,w,c
  9249  000C18  0012               	return	
  9250  000C1A                     __end_ofi2_EEPROM_Read:
  9251                           	opt stack 0
  9252                           pclatu	equ	0xFFB
  9253                           pclath	equ	0xFFA
  9254                           tblptru	equ	0xFF8
  9255                           tblptrh	equ	0xFF7
  9256                           tblptrl	equ	0xFF6
  9257                           tablat	equ	0xFF5
  9258                           prodh	equ	0xFF4
  9259                           prodl	equ	0xFF3
  9260                           intcon	equ	0xFF2
  9261                           postinc0	equ	0xFEE
  9262                           fsr0h	equ	0xFEA
  9263                           fsr0l	equ	0xFE9
  9264                           wreg	equ	0xFE8
  9265                           indf1	equ	0xFE7
  9266                           postdec1	equ	0xFE5
  9267                           fsr1h	equ	0xFE2
  9268                           fsr1l	equ	0xFE1
  9269                           indf2	equ	0xFDF
  9270                           postinc2	equ	0xFDE
  9271                           postdec2	equ	0xFDD
  9272                           plusw2	equ	0xFDB
  9273                           fsr2h	equ	0xFDA
  9274                           fsr2l	equ	0xFD9
  9275                           status	equ	0xFD8
  9276                           
  9277 ;; *************** function _USB_Ept_Init *****************
  9278 ;; Defined at:
  9279 ;;		line 172 in file "../src/blaster.c"
  9280 ;; Parameters:    Size  Location     Type
  9281 ;;		None
  9282 ;; Auto vars:     Size  Location     Type
  9283 ;;		None
  9284 ;; Return value:  Size  Location     Type
  9285 ;;                  1    wreg      void 
  9286 ;; Registers used:
  9287 ;;		wreg, fsr2l, fsr2h, status,2, status,0, prodl, prodh, cstack
  9288 ;; Tracked objects:
  9289 ;;		On entry : 0/0
  9290 ;;		On exit  : 0/0
  9291 ;;		Unchanged: 0/0
  9292 ;; Data sizes:     COMRAM   BANK0   BANK1
  9293 ;;      Params:         0       0       0
  9294 ;;      Locals:         0       0       0
  9295 ;;      Temps:          0       0       0
  9296 ;;      Totals:         0       0       0
  9297 ;;Total ram usage:        0 bytes
  9298 ;; Hardware stack levels used:    1
  9299 ;; Hardware stack levels required when called:    2
  9300 ;; This function calls:
  9301 ;;		_TXFIFO_Init
  9302 ;;		_USBEnableEndpoint
  9303 ;;		i2_JTAG_Mode_PORT
  9304 ;; This function is called by:
  9305 ;;		_USER_USB_CALLBACK_EVENT_HANDLER
  9306 ;; This function uses a non-reentrant model
  9307 ;;
  9308                           
  9309                           	psect	text42
  9310  001F90                     __ptext42:
  9311                           	opt stack 0
  9312  001F90                     _USB_Ept_Init:
  9313                           	opt stack 22
  9314                           
  9315                           ;blaster.c: 175: USB_OutHandle0 = 0;
  9316                           
  9317                           ;incstack = 0
  9318  001F90  0E00               	movlw	0
  9319  001F92  0100               	movlb	0	; () banked
  9320  001F94  6F7C               	movwf	_USB_OutHandle0& (0+255),b
  9321  001F96  0E00               	movlw	0
  9322  001F98  0100               	movlb	0	; () banked
  9323  001F9A  6F7D               	movwf	(_USB_OutHandle0+1)& (0+255),b
  9324                           
  9325                           ;blaster.c: 176: USB_OutHandle1 = 0;
  9326  001F9C  0E00               	movlw	0
  9327  001F9E  0100               	movlb	0	; () banked
  9328  001FA0  6F7E               	movwf	_USB_OutHandle1& (0+255),b
  9329  001FA2  0E00               	movlw	0
  9330  001FA4  0100               	movlb	0	; () banked
  9331  001FA6  6F7F               	movwf	(_USB_OutHandle1+1)& (0+255),b
  9332                           
  9333                           ;blaster.c: 177: USB_InHandle0 = 0;
  9334  001FA8  0E00               	movlw	0
  9335  001FAA  0100               	movlb	0	; () banked
  9336  001FAC  6F7A               	movwf	_USB_InHandle0& (0+255),b
  9337  001FAE  0E00               	movlw	0
  9338  001FB0  0100               	movlb	0	; () banked
  9339  001FB2  6F7B               	movwf	(_USB_InHandle0+1)& (0+255),b
  9340                           
  9341                           ; BSR set to: 0
  9342                           ;blaster.c: 180: TXFIFO_Init();
  9343  001FB4  EC53  F011         	call	_TXFIFO_Init	;wreg free
  9344                           
  9345                           ;blaster.c: 183: Rx_State = RX_INIT;
  9346  001FB8  0E00               	movlw	0
  9347  001FBA  0100               	movlb	0	; () banked
  9348  001FBC  6F85               	movwf	_Rx_State& (0+255),b
  9349                           
  9350                           ; BSR set to: 0
  9351                           ;blaster.c: 184: JTAG_State = JTAG_BIT_BANG;
  9352  001FBE  0E00               	movlw	0
  9353  001FC0  0100               	movlb	0	; () banked
  9354  001FC2  6F81               	movwf	_JTAG_State& (0+255),b
  9355                           
  9356                           ; BSR set to: 0
  9357                           ;blaster.c: 185: JTAG_Mode_PORT();
  9358  001FC4  EC82  F011         	call	i2_JTAG_Mode_PORT	;wreg free
  9359                           
  9360                           ;blaster.c: 186: ByteSize = 0;
  9361  001FC8  0E00               	movlw	0
  9362  001FCA  0100               	movlb	0	; () banked
  9363  001FCC  6F80               	movwf	_ByteSize& (0+255),b
  9364                           
  9365                           ; BSR set to: 0
  9366                           ;blaster.c: 187: nCS = 1;
  9367  001FCE  0E01               	movlw	1
  9368  001FD0  0100               	movlb	0	; () banked
  9369  001FD2  6F88               	movwf	_nCS& (0+255),b
  9370                           
  9371                           ; BSR set to: 0
  9372                           ;blaster.c: 190: USBEnableEndpoint(1,0x02 |0x10|0x08);
  9373  001FD4  0E1A               	movlw	26
  9374  001FD6  6E09               	movwf	USBEnableEndpoint@options,c
  9375  001FD8  0E01               	movlw	1
  9376  001FDA  EC3C  F010         	call	_USBEnableEndpoint
  9377                           
  9378                           ;blaster.c: 191: USBEnableEndpoint(2,0x04|0x10|0x08);
  9379  001FDE  0E1C               	movlw	28
  9380  001FE0  6E09               	movwf	USBEnableEndpoint@options,c
  9381  001FE2  0E02               	movlw	2
  9382  001FE4  EC3C  F010         	call	_USBEnableEndpoint
  9383  001FE8  0012               	return		;funcret
  9384  001FEA                     __end_of_USB_Ept_Init:
  9385                           	opt stack 0
  9386                           pclatu	equ	0xFFB
  9387                           pclath	equ	0xFFA
  9388                           tblptru	equ	0xFF8
  9389                           tblptrh	equ	0xFF7
  9390                           tblptrl	equ	0xFF6
  9391                           tablat	equ	0xFF5
  9392                           prodh	equ	0xFF4
  9393                           prodl	equ	0xFF3
  9394                           intcon	equ	0xFF2
  9395                           postinc0	equ	0xFEE
  9396                           fsr0h	equ	0xFEA
  9397                           fsr0l	equ	0xFE9
  9398                           wreg	equ	0xFE8
  9399                           indf1	equ	0xFE7
  9400                           postdec1	equ	0xFE5
  9401                           fsr1h	equ	0xFE2
  9402                           fsr1l	equ	0xFE1
  9403                           indf2	equ	0xFDF
  9404                           postinc2	equ	0xFDE
  9405                           postdec2	equ	0xFDD
  9406                           plusw2	equ	0xFDB
  9407                           fsr2h	equ	0xFDA
  9408                           fsr2l	equ	0xFD9
  9409                           status	equ	0xFD8
  9410                           
  9411 ;; *************** function i2_JTAG_Mode_PORT *****************
  9412 ;; Defined at:
  9413 ;;		line 62 in file "../src/jtag.c"
  9414 ;; Parameters:    Size  Location     Type
  9415 ;;		None
  9416 ;; Auto vars:     Size  Location     Type
  9417 ;;		None
  9418 ;; Return value:  Size  Location     Type
  9419 ;;                  1    wreg      void 
  9420 ;; Registers used:
  9421 ;;		None
  9422 ;; Tracked objects:
  9423 ;;		On entry : 0/0
  9424 ;;		On exit  : 0/0
  9425 ;;		Unchanged: 0/0
  9426 ;; Data sizes:     COMRAM   BANK0   BANK1
  9427 ;;      Params:         0       0       0
  9428 ;;      Locals:         0       0       0
  9429 ;;      Temps:          0       0       0
  9430 ;;      Totals:         0       0       0
  9431 ;;Total ram usage:        0 bytes
  9432 ;; Hardware stack levels used:    1
  9433 ;; This function calls:
  9434 ;;		Nothing
  9435 ;; This function is called by:
  9436 ;;		_USB_Ept_Init
  9437 ;; This function uses a non-reentrant model
  9438 ;;
  9439                           
  9440                           	psect	text43
  9441  002304                     __ptext43:
  9442                           	opt stack 0
  9443  002304                     i2_JTAG_Mode_PORT:
  9444                           	opt stack 23
  9445                           
  9446                           ;jtag.c: 64: SSPCON1bits.SSPEN = 0;
  9447                           
  9448                           ;incstack = 0
  9449  002304  9AC6               	bcf	4038,5,c	;volatile
  9450  002306  0012               	return		;funcret
  9451  002308                     __end_ofi2_JTAG_Mode_PORT:
  9452                           	opt stack 0
  9453                           pclatu	equ	0xFFB
  9454                           pclath	equ	0xFFA
  9455                           tblptru	equ	0xFF8
  9456                           tblptrh	equ	0xFF7
  9457                           tblptrl	equ	0xFF6
  9458                           tablat	equ	0xFF5
  9459                           prodh	equ	0xFF4
  9460                           prodl	equ	0xFF3
  9461                           intcon	equ	0xFF2
  9462                           postinc0	equ	0xFEE
  9463                           fsr0h	equ	0xFEA
  9464                           fsr0l	equ	0xFE9
  9465                           wreg	equ	0xFE8
  9466                           indf1	equ	0xFE7
  9467                           postdec1	equ	0xFE5
  9468                           fsr1h	equ	0xFE2
  9469                           fsr1l	equ	0xFE1
  9470                           indf2	equ	0xFDF
  9471                           postinc2	equ	0xFDE
  9472                           postdec2	equ	0xFDD
  9473                           plusw2	equ	0xFDB
  9474                           fsr2h	equ	0xFDA
  9475                           fsr2l	equ	0xFD9
  9476                           status	equ	0xFD8
  9477                           
  9478 ;; *************** function _USBEnableEndpoint *****************
  9479 ;; Defined at:
  9480 ;;		line 878 in file "../../mla/framework/usb/src/usb_device.c"
  9481 ;; Parameters:    Size  Location     Type
  9482 ;;  ep              1    wreg     unsigned char 
  9483 ;;  options         1    8[COMRAM] unsigned char 
  9484 ;; Auto vars:     Size  Location     Type
  9485 ;;  ep              1   11[COMRAM] unsigned char 
  9486 ;;  p               2    9[COMRAM] PTR unsigned char 
  9487 ;;		 -> UEP0(1), 
  9488 ;; Return value:  Size  Location     Type
  9489 ;;                  1    wreg      void 
  9490 ;; Registers used:
  9491 ;;		wreg, fsr2l, fsr2h, status,2, status,0, prodl, prodh, cstack
  9492 ;; Tracked objects:
  9493 ;;		On entry : 0/0
  9494 ;;		On exit  : 0/0
  9495 ;;		Unchanged: 0/0
  9496 ;; Data sizes:     COMRAM   BANK0   BANK1
  9497 ;;      Params:         1       0       0
  9498 ;;      Locals:         3       0       0
  9499 ;;      Temps:          0       0       0
  9500 ;;      Totals:         4       0       0
  9501 ;;Total ram usage:        4 bytes
  9502 ;; Hardware stack levels used:    1
  9503 ;; Hardware stack levels required when called:    1
  9504 ;; This function calls:
  9505 ;;		_USBConfigureEndpoint
  9506 ;; This function is called by:
  9507 ;;		_USB_Ept_Init
  9508 ;; This function uses a non-reentrant model
  9509 ;;
  9510                           
  9511                           	psect	text44
  9512  002078                     __ptext44:
  9513                           	opt stack 0
  9514  002078                     _USBEnableEndpoint:
  9515                           	opt stack 22
  9516                           
  9517                           ;incstack = 0
  9518                           ;USBEnableEndpoint@ep stored from wreg
  9519  002078  6E0C               	movwf	USBEnableEndpoint@ep,c
  9520                           
  9521                           ;usb_device.c: 880: unsigned char* p;
  9522                           ;usb_device.c: 884: if(options & 0x04)
  9523  00207A  A409               	btfss	USBEnableEndpoint@options,2,c
  9524  00207C  D005               	goto	i2l2844
  9525                           
  9526                           ;usb_device.c: 885: {
  9527                           ;usb_device.c: 886: USBConfigureEndpoint(ep, 0);
  9528  00207E  0E00               	movlw	0
  9529  002080  6E01               	movwf	USBConfigureEndpoint@direction,c
  9530  002082  500C               	movf	USBEnableEndpoint@ep,w,c
  9531  002084  ECA2  F00E         	call	_USBConfigureEndpoint
  9532  002088                     i2l2844:
  9533                           
  9534                           ;usb_device.c: 887: }
  9535                           ;usb_device.c: 888: if(options & 0x02)
  9536  002088  A209               	btfss	USBEnableEndpoint@options,1,c
  9537  00208A  D005               	goto	i2l2848
  9538                           
  9539                           ;usb_device.c: 889: {
  9540                           ;usb_device.c: 890: USBConfigureEndpoint(ep, 1);
  9541  00208C  0E01               	movlw	1
  9542  00208E  6E01               	movwf	USBConfigureEndpoint@direction,c
  9543  002090  500C               	movf	USBEnableEndpoint@ep,w,c
  9544  002092  ECA2  F00E         	call	_USBConfigureEndpoint
  9545  002096                     i2l2848:
  9546                           
  9547                           ;usb_device.c: 891: }
  9548                           ;usb_device.c: 899: p = (unsigned char*)(&UEP0+ep);
  9549  002096  500C               	movf	USBEnableEndpoint@ep,w,c
  9550  002098  0D01               	mullw	1
  9551  00209A  0E53               	movlw	83
  9552  00209C  24F3               	addwf	prodl,w,c
  9553  00209E  6E0A               	movwf	USBEnableEndpoint@p,c
  9554  0020A0  0E0F               	movlw	15
  9555  0020A2  20F4               	addwfc	prodh,w,c
  9556  0020A4  6E0B               	movwf	USBEnableEndpoint@p+1,c
  9557                           
  9558                           ;usb_device.c: 901: *p = options;
  9559  0020A6  C00A  FFD9         	movff	USBEnableEndpoint@p,fsr2l
  9560  0020AA  C00B  FFDA         	movff	USBEnableEndpoint@p+1,fsr2h
  9561  0020AE  C009  FFDF         	movff	USBEnableEndpoint@options,indf2
  9562  0020B2  0012               	return		;funcret
  9563  0020B4                     __end_of_USBEnableEndpoint:
  9564                           	opt stack 0
  9565                           pclatu	equ	0xFFB
  9566                           pclath	equ	0xFFA
  9567                           tblptru	equ	0xFF8
  9568                           tblptrh	equ	0xFF7
  9569                           tblptrl	equ	0xFF6
  9570                           tablat	equ	0xFF5
  9571                           prodh	equ	0xFF4
  9572                           prodl	equ	0xFF3
  9573                           intcon	equ	0xFF2
  9574                           postinc0	equ	0xFEE
  9575                           fsr0h	equ	0xFEA
  9576                           fsr0l	equ	0xFE9
  9577                           wreg	equ	0xFE8
  9578                           indf1	equ	0xFE7
  9579                           postdec1	equ	0xFE5
  9580                           fsr1h	equ	0xFE2
  9581                           fsr1l	equ	0xFE1
  9582                           indf2	equ	0xFDF
  9583                           postinc2	equ	0xFDE
  9584                           postdec2	equ	0xFDD
  9585                           plusw2	equ	0xFDB
  9586                           fsr2h	equ	0xFDA
  9587                           fsr2l	equ	0xFD9
  9588                           status	equ	0xFD8
  9589                           
  9590 ;; *************** function _USBConfigureEndpoint *****************
  9591 ;; Defined at:
  9592 ;;		line 1543 in file "../../mla/framework/usb/src/usb_device.c"
  9593 ;; Parameters:    Size  Location     Type
  9594 ;;  EPNum           1    wreg     unsigned char 
  9595 ;;  direction       1    0[COMRAM] unsigned char 
  9596 ;; Auto vars:     Size  Location     Type
  9597 ;;  EPNum           1    5[COMRAM] unsigned char 
  9598 ;;  handle          2    6[COMRAM] PTR volatile struct __BD
  9599 ;;		 -> BDT(48), 
  9600 ;; Return value:  Size  Location     Type
  9601 ;;                  1    wreg      void 
  9602 ;; Registers used:
  9603 ;;		wreg, fsr2l, fsr2h, status,2, status,0, prodl, prodh
  9604 ;; Tracked objects:
  9605 ;;		On entry : 0/0
  9606 ;;		On exit  : 0/0
  9607 ;;		Unchanged: 0/0
  9608 ;; Data sizes:     COMRAM   BANK0   BANK1
  9609 ;;      Params:         1       0       0
  9610 ;;      Locals:         3       0       0
  9611 ;;      Temps:          4       0       0
  9612 ;;      Totals:         8       0       0
  9613 ;;Total ram usage:        8 bytes
  9614 ;; Hardware stack levels used:    1
  9615 ;; This function calls:
  9616 ;;		Nothing
  9617 ;; This function is called by:
  9618 ;;		_USBEnableEndpoint
  9619 ;; This function uses a non-reentrant model
  9620 ;;
  9621                           
  9622                           	psect	text45
  9623  001D44                     __ptext45:
  9624                           	opt stack 0
  9625  001D44                     _USBConfigureEndpoint:
  9626                           	opt stack 22
  9627                           
  9628                           ;incstack = 0
  9629                           ;USBConfigureEndpoint@EPNum stored from wreg
  9630  001D44  6E06               	movwf	USBConfigureEndpoint@EPNum,c
  9631                           
  9632                           ;usb_device.c: 1545: volatile BDT_ENTRY* handle;
  9633                           ;usb_device.c: 1549: handle = (volatile BDT_ENTRY*)&BDT[0];
  9634  001D46  0E00               	movlw	0
  9635  001D48  6E07               	movwf	USBConfigureEndpoint@handle,c
  9636  001D4A  0E02               	movlw	2
  9637  001D4C  6E08               	movwf	USBConfigureEndpoint@handle+1,c
  9638                           
  9639                           ;usb_device.c: 1550: handle += (4*EPNum+2*direction+0u);
  9640  001D4E  5001               	movf	USBConfigureEndpoint@direction,w,c
  9641  001D50  6E02               	movwf	??_USBConfigureEndpoint& (0+255),c
  9642  001D52  6A03               	clrf	(??_USBConfigureEndpoint+1)& (0+255),c
  9643  001D54  90D8               	bcf	status,0,c
  9644  001D56  3602               	rlcf	??_USBConfigureEndpoint,f,c
  9645  001D58  3603               	rlcf	??_USBConfigureEndpoint+1,f,c
  9646  001D5A  5006               	movf	USBConfigureEndpoint@EPNum,w,c
  9647  001D5C  6E04               	movwf	(??_USBConfigureEndpoint+2)& (0+255),c
  9648  001D5E  6A05               	clrf	(??_USBConfigureEndpoint+3)& (0+255),c
  9649  001D60  90D8               	bcf	status,0,c
  9650  001D62  3604               	rlcf	??_USBConfigureEndpoint+2,f,c
  9651  001D64  3605               	rlcf	??_USBConfigureEndpoint+3,f,c
  9652  001D66  90D8               	bcf	status,0,c
  9653  001D68  3604               	rlcf	??_USBConfigureEndpoint+2,f,c
  9654  001D6A  3605               	rlcf	??_USBConfigureEndpoint+3,f,c
  9655  001D6C  5002               	movf	??_USBConfigureEndpoint,w,c
  9656  001D6E  2604               	addwf	??_USBConfigureEndpoint+2,f,c
  9657  001D70  5003               	movf	??_USBConfigureEndpoint+1,w,c
  9658  001D72  2205               	addwfc	??_USBConfigureEndpoint+3,f,c
  9659  001D74  90D8               	bcf	status,0,c
  9660  001D76  3604               	rlcf	??_USBConfigureEndpoint+2,f,c
  9661  001D78  3605               	rlcf	??_USBConfigureEndpoint+3,f,c
  9662  001D7A  90D8               	bcf	status,0,c
  9663  001D7C  3604               	rlcf	??_USBConfigureEndpoint+2,f,c
  9664  001D7E  3605               	rlcf	??_USBConfigureEndpoint+3,f,c
  9665  001D80  5004               	movf	??_USBConfigureEndpoint+2,w,c
  9666  001D82  2607               	addwf	USBConfigureEndpoint@handle,f,c
  9667  001D84  5005               	movf	??_USBConfigureEndpoint+3,w,c
  9668  001D86  2208               	addwfc	USBConfigureEndpoint@handle+1,f,c
  9669                           
  9670                           ;usb_device.c: 1552: handle->STAT.UOWN = 0;
  9671  001D88  C007  FFD9         	movff	USBConfigureEndpoint@handle,fsr2l
  9672  001D8C  C008  FFDA         	movff	USBConfigureEndpoint@handle+1,fsr2h
  9673  001D90  9EDF               	bcf	indf2,7,c
  9674                           
  9675                           ;usb_device.c: 1557: if(direction == 0)
  9676  001D92  5001               	movf	USBConfigureEndpoint@direction,w,c
  9677  001D94  A4D8               	btfss	status,2,c
  9678  001D96  D007               	goto	i2l2832
  9679                           
  9680                           ;usb_device.c: 1558: {
  9681                           ;usb_device.c: 1559: pBDTEntryOut[EPNum] = handle;
  9682  001D98  5006               	movf	USBConfigureEndpoint@EPNum,w,c
  9683  001D9A  0D02               	mullw	2
  9684  001D9C  0E6E               	movlw	low _pBDTEntryOut
  9685  001D9E  24F3               	addwf	prodl,w,c
  9686  001DA0  6ED9               	movwf	fsr2l,c
  9687  001DA2  0E00               	movlw	high _pBDTEntryOut
  9688  001DA4  D006               	goto	L60
  9689  001DA6                     i2l2832:
  9690                           
  9691                           ;usb_device.c: 1561: else
  9692                           ;usb_device.c: 1562: {
  9693                           ;usb_device.c: 1563: pBDTEntryIn[EPNum] = handle;
  9694  001DA6  5006               	movf	USBConfigureEndpoint@EPNum,w,c
  9695  001DA8  0D02               	mullw	2
  9696  001DAA  0E68               	movlw	low _pBDTEntryIn
  9697  001DAC  24F3               	addwf	prodl,w,c
  9698  001DAE  6ED9               	movwf	fsr2l,c
  9699  001DB0  0E00               	movlw	high _pBDTEntryIn
  9700  001DB2                     L60:
  9701  001DB2  20F4               	addwfc	prodh,w,c
  9702  001DB4  6EDA               	movwf	fsr2h,c
  9703  001DB6  C007  FFDE         	movff	USBConfigureEndpoint@handle,postinc2
  9704  001DBA  C008  FFDD         	movff	USBConfigureEndpoint@handle+1,postdec2
  9705                           
  9706                           ;usb_device.c: 1564: }
  9707                           ;usb_device.c: 1567: handle->STAT.DTS = 0;
  9708  001DBE  C007  FFD9         	movff	USBConfigureEndpoint@handle,fsr2l
  9709  001DC2  C008  FFDA         	movff	USBConfigureEndpoint@handle+1,fsr2h
  9710  001DC6  9CDF               	bcf	indf2,6,c
  9711                           
  9712                           ;usb_device.c: 1568: (handle+1)->STAT.DTS = 1;
  9713  001DC8  EE20 F004          	lfsr	2,4
  9714  001DCC  5007               	movf	USBConfigureEndpoint@handle,w,c
  9715  001DCE  26D9               	addwf	fsr2l,f,c
  9716  001DD0  5008               	movf	USBConfigureEndpoint@handle+1,w,c
  9717  001DD2  22DA               	addwfc	fsr2h,f,c
  9718  001DD4  8CDF               	bsf	indf2,6,c
  9719  001DD6  0012               	return		;funcret
  9720  001DD8                     __end_of_USBConfigureEndpoint:
  9721                           	opt stack 0
  9722                           pclatu	equ	0xFFB
  9723                           pclath	equ	0xFFA
  9724                           tblptru	equ	0xFF8
  9725                           tblptrh	equ	0xFF7
  9726                           tblptrl	equ	0xFF6
  9727                           tablat	equ	0xFF5
  9728                           prodh	equ	0xFF4
  9729                           prodl	equ	0xFF3
  9730                           intcon	equ	0xFF2
  9731                           postinc0	equ	0xFEE
  9732                           fsr0h	equ	0xFEA
  9733                           fsr0l	equ	0xFE9
  9734                           wreg	equ	0xFE8
  9735                           indf1	equ	0xFE7
  9736                           postdec1	equ	0xFE5
  9737                           fsr1h	equ	0xFE2
  9738                           fsr1l	equ	0xFE1
  9739                           indf2	equ	0xFDF
  9740                           postinc2	equ	0xFDE
  9741                           postdec2	equ	0xFDD
  9742                           plusw2	equ	0xFDB
  9743                           fsr2h	equ	0xFDA
  9744                           fsr2l	equ	0xFD9
  9745                           status	equ	0xFD8
  9746                           
  9747 ;; *************** function _TXFIFO_Init *****************
  9748 ;; Defined at:
  9749 ;;		line 297 in file "../src/blaster.c"
  9750 ;; Parameters:    Size  Location     Type
  9751 ;;		None
  9752 ;; Auto vars:     Size  Location     Type
  9753 ;;		None
  9754 ;; Return value:  Size  Location     Type
  9755 ;;                  1    wreg      void 
  9756 ;; Registers used:
  9757 ;;		wreg, status,2
  9758 ;; Tracked objects:
  9759 ;;		On entry : 0/0
  9760 ;;		On exit  : 0/0
  9761 ;;		Unchanged: 0/0
  9762 ;; Data sizes:     COMRAM   BANK0   BANK1
  9763 ;;      Params:         0       0       0
  9764 ;;      Locals:         0       0       0
  9765 ;;      Temps:          0       0       0
  9766 ;;      Totals:         0       0       0
  9767 ;;Total ram usage:        0 bytes
  9768 ;; Hardware stack levels used:    1
  9769 ;; This function calls:
  9770 ;;		Nothing
  9771 ;; This function is called by:
  9772 ;;		_USB_Ept_Init
  9773 ;; This function uses a non-reentrant model
  9774 ;;
  9775                           
  9776                           	psect	text46
  9777  0022A6                     __ptext46:
  9778                           	opt stack 0
  9779  0022A6                     _TXFIFO_Init:
  9780                           	opt stack 23
  9781                           
  9782                           ;blaster.c: 299: TXFIFO_rp = 0;
  9783                           
  9784                           ;incstack = 0
  9785  0022A6  0E00               	movlw	0
  9786  0022A8  6E43               	movwf	_TXFIFO_rp,c
  9787                           
  9788                           ;blaster.c: 300: TXFIFO_wp = 0;
  9789  0022AA  0E00               	movlw	0
  9790  0022AC  6E44               	movwf	_TXFIFO_wp,c
  9791                           
  9792                           ;blaster.c: 301: TXFIFO_ocpy = 0;
  9793  0022AE  0E00               	movlw	0
  9794  0022B0  6E3A               	movwf	_TXFIFO_ocpy+1,c
  9795  0022B2  0E00               	movlw	0
  9796  0022B4  6E39               	movwf	_TXFIFO_ocpy,c
  9797  0022B6  0012               	return		;funcret
  9798  0022B8                     __end_of_TXFIFO_Init:
  9799                           	opt stack 0
  9800                           pclatu	equ	0xFFB
  9801                           pclath	equ	0xFFA
  9802                           tblptru	equ	0xFF8
  9803                           tblptrh	equ	0xFF7
  9804                           tblptrl	equ	0xFF6
  9805                           tablat	equ	0xFF5
  9806                           prodh	equ	0xFF4
  9807                           prodl	equ	0xFF3
  9808                           intcon	equ	0xFF2
  9809                           postinc0	equ	0xFEE
  9810                           fsr0h	equ	0xFEA
  9811                           fsr0l	equ	0xFE9
  9812                           wreg	equ	0xFE8
  9813                           indf1	equ	0xFE7
  9814                           postdec1	equ	0xFE5
  9815                           fsr1h	equ	0xFE2
  9816                           fsr1l	equ	0xFE1
  9817                           indf2	equ	0xFDF
  9818                           postinc2	equ	0xFDE
  9819                           postdec2	equ	0xFDD
  9820                           plusw2	equ	0xFDB
  9821                           fsr2h	equ	0xFDA
  9822                           fsr2l	equ	0xFD9
  9823                           status	equ	0xFD8
  9824                           
  9825 ;; *************** function _USBCheckVendorRequest *****************
  9826 ;; Defined at:
  9827 ;;		line 247 in file "../../mla/framework/usb/src/usb_device_generic.c"
  9828 ;; Parameters:    Size  Location     Type
  9829 ;;		None
  9830 ;; Auto vars:     Size  Location     Type
  9831 ;;		None
  9832 ;; Return value:  Size  Location     Type
  9833 ;;                  1    wreg      void 
  9834 ;; Registers used:
  9835 ;;		None
  9836 ;; Tracked objects:
  9837 ;;		On entry : 0/0
  9838 ;;		On exit  : 0/0
  9839 ;;		Unchanged: 0/0
  9840 ;; Data sizes:     COMRAM   BANK0   BANK1
  9841 ;;      Params:         0       0       0
  9842 ;;      Locals:         0       0       0
  9843 ;;      Temps:          0       0       0
  9844 ;;      Totals:         0       0       0
  9845 ;;Total ram usage:        0 bytes
  9846 ;; Hardware stack levels used:    1
  9847 ;; This function calls:
  9848 ;;		Nothing
  9849 ;; This function is called by:
  9850 ;;		_USER_USB_CALLBACK_EVENT_HANDLER
  9851 ;; This function uses a non-reentrant model
  9852 ;;
  9853                           
  9854                           	psect	text47
  9855  002308                     __ptext47:
  9856                           	opt stack 0
  9857  002308                     _USBCheckVendorRequest:
  9858                           	opt stack 24
  9859                           
  9860                           ;incstack = 0
  9861  002308  0012               	return		;funcret
  9862  00230A                     __end_of_USBCheckVendorRequest:
  9863                           	opt stack 0
  9864                           pclatu	equ	0xFFB
  9865                           pclath	equ	0xFFA
  9866                           tblptru	equ	0xFF8
  9867                           tblptrh	equ	0xFF7
  9868                           tblptrl	equ	0xFF6
  9869                           tablat	equ	0xFF5
  9870                           prodh	equ	0xFF4
  9871                           prodl	equ	0xFF3
  9872                           intcon	equ	0xFF2
  9873                           postinc0	equ	0xFEE
  9874                           fsr0h	equ	0xFEA
  9875                           fsr0l	equ	0xFE9
  9876                           wreg	equ	0xFE8
  9877                           indf1	equ	0xFE7
  9878                           postdec1	equ	0xFE5
  9879                           fsr1h	equ	0xFE2
  9880                           fsr1l	equ	0xFE1
  9881                           indf2	equ	0xFDF
  9882                           postinc2	equ	0xFDE
  9883                           postdec2	equ	0xFDD
  9884                           plusw2	equ	0xFDB
  9885                           fsr2h	equ	0xFDA
  9886                           fsr2l	equ	0xFD9
  9887                           status	equ	0xFD8
  9888                           
  9889 ;; *************** function _USBCtrlTrfOutHandler *****************
  9890 ;; Defined at:
  9891 ;;		line 2541 in file "../../mla/framework/usb/src/usb_device.c"
  9892 ;; Parameters:    Size  Location     Type
  9893 ;;		None
  9894 ;; Auto vars:     Size  Location     Type
  9895 ;;		None
  9896 ;; Return value:  Size  Location     Type
  9897 ;;                  1    wreg      void 
  9898 ;; Registers used:
  9899 ;;		wreg, fsr1l, fsr1h, fsr2l, fsr2h, status,2, status,0, prodl, prodh, cstack
  9900 ;; Tracked objects:
  9901 ;;		On entry : 0/0
  9902 ;;		On exit  : 0/0
  9903 ;;		Unchanged: 0/0
  9904 ;; Data sizes:     COMRAM   BANK0   BANK1
  9905 ;;      Params:         0       0       0
  9906 ;;      Locals:         0       0       0
  9907 ;;      Temps:          0       0       0
  9908 ;;      Totals:         0       0       0
  9909 ;;Total ram usage:        0 bytes
  9910 ;; Hardware stack levels used:    1
  9911 ;; Hardware stack levels required when called:    2
  9912 ;; This function calls:
  9913 ;;		_USBCtrlTrfRxService
  9914 ;; This function is called by:
  9915 ;;		_USBCtrlEPService
  9916 ;; This function uses a non-reentrant model
  9917 ;;
  9918                           
  9919                           	psect	text48
  9920  001F34                     __ptext48:
  9921                           	opt stack 0
  9922  001F34                     _USBCtrlTrfOutHandler:
  9923                           	opt stack 22
  9924                           
  9925                           ;usb_device.c: 2543: if(controlTransferState == 2)
  9926                           
  9927                           ;incstack = 0
  9928  001F34  0E02               	movlw	2
  9929  001F36  184C               	xorwf	_controlTransferState,w,c	;volatile
  9930  001F38  A4D8               	btfss	status,2,c
  9931  001F3A  D003               	goto	i2l3518
  9932                           
  9933                           ;usb_device.c: 2544: {
  9934                           ;usb_device.c: 2545: USBCtrlTrfRxService();
  9935  001F3C  ECC4  F009         	call	_USBCtrlTrfRxService	;wreg free
  9936                           
  9937                           ;usb_device.c: 2546: }
  9938  001F40  0012               	return	
  9939  001F42                     i2l3518:
  9940                           
  9941                           ;usb_device.c: 2547: else
  9942                           ;usb_device.c: 2548: {
  9943                           ;usb_device.c: 2551: controlTransferState = 0;
  9944  001F42  0E00               	movlw	0
  9945  001F44  6E4C               	movwf	_controlTransferState,c	;volatile
  9946                           
  9947                           ;usb_device.c: 2558: if(BothEP0OutUOWNsSet == 0)
  9948  001F46  5041               	movf	_BothEP0OutUOWNsSet,w,c	;volatile
  9949  001F48  A4D8               	btfss	status,2,c
  9950  001F4A  D01F               	goto	i2l3526
  9951                           
  9952                           ;usb_device.c: 2559: {
  9953                           ;usb_device.c: 2560: pBDTEntryEP0OutNext->CNT = 8;
  9954  001F4C  EE20 F001          	lfsr	2,1
  9955  001F50  503D               	movf	_pBDTEntryEP0OutNext,w,c
  9956  001F52  26D9               	addwf	fsr2l,f,c
  9957  001F54  503E               	movf	_pBDTEntryEP0OutNext+1,w,c
  9958  001F56  22DA               	addwfc	fsr2h,f,c
  9959  001F58  0E08               	movlw	8
  9960  001F5A  6EDF               	movwf	indf2,c
  9961                           
  9962                           ;usb_device.c: 2561: pBDTEntryEP0OutNext->ADR = ((uint16_t)(&SetupPkt));
  9963  001F5C  EE20 F002          	lfsr	2,2
  9964  001F60  503D               	movf	_pBDTEntryEP0OutNext,w,c
  9965  001F62  26D9               	addwf	fsr2l,f,c
  9966  001F64  503E               	movf	_pBDTEntryEP0OutNext+1,w,c
  9967  001F66  22DA               	addwfc	fsr2h,f,c
  9968  001F68  0E30               	movlw	48
  9969  001F6A  6EDE               	movwf	postinc2,c
  9970  001F6C  0E02               	movlw	2
  9971  001F6E  6EDD               	movwf	postdec2,c
  9972                           
  9973                           ;usb_device.c: 2562: pBDTEntryEP0OutNext->STAT.Val = 0x00|(0x08 & 0x08)|0x04;
  9974  001F70  C03D  FFD9         	movff	_pBDTEntryEP0OutNext,fsr2l
  9975  001F74  C03E  FFDA         	movff	_pBDTEntryEP0OutNext+1,fsr2h
  9976  001F78  0E0C               	movlw	12
  9977  001F7A  6EDF               	movwf	indf2,c
  9978                           
  9979                           ;usb_device.c: 2563: pBDTEntryEP0OutNext->STAT.Val |= 0x80;
  9980  001F7C  C03D  FFD9         	movff	_pBDTEntryEP0OutNext,fsr2l
  9981  001F80  C03E  FFDA         	movff	_pBDTEntryEP0OutNext+1,fsr2h
  9982  001F84  0E00               	movlw	0
  9983  001F86  8EDB               	bsf	plusw2,7,c
  9984                           
  9985                           ;usb_device.c: 2564: }
  9986  001F88  0012               	return	
  9987  001F8A                     i2l3526:
  9988                           
  9989                           ;usb_device.c: 2565: else
  9990                           ;usb_device.c: 2566: {
  9991                           ;usb_device.c: 2567: BothEP0OutUOWNsSet = 0;
  9992  001F8A  0E00               	movlw	0
  9993  001F8C  6E41               	movwf	_BothEP0OutUOWNsSet,c	;volatile
  9994  001F8E  0012               	return	
  9995  001F90                     __end_of_USBCtrlTrfOutHandler:
  9996                           	opt stack 0
  9997                           pclatu	equ	0xFFB
  9998                           pclath	equ	0xFFA
  9999                           tblptru	equ	0xFF8
 10000                           tblptrh	equ	0xFF7
 10001                           tblptrl	equ	0xFF6
 10002                           tablat	equ	0xFF5
 10003                           prodh	equ	0xFF4
 10004                           prodl	equ	0xFF3
 10005                           intcon	equ	0xFF2
 10006                           postinc0	equ	0xFEE
 10007                           fsr0h	equ	0xFEA
 10008                           fsr0l	equ	0xFE9
 10009                           wreg	equ	0xFE8
 10010                           indf1	equ	0xFE7
 10011                           postdec1	equ	0xFE5
 10012                           fsr1h	equ	0xFE2
 10013                           fsr1l	equ	0xFE1
 10014                           indf2	equ	0xFDF
 10015                           postinc2	equ	0xFDE
 10016                           postdec2	equ	0xFDD
 10017                           plusw2	equ	0xFDB
 10018                           fsr2h	equ	0xFDA
 10019                           fsr2l	equ	0xFD9
 10020                           status	equ	0xFD8
 10021                           
 10022 ;; *************** function _USBCtrlTrfRxService *****************
 10023 ;; Defined at:
 10024 ;;		line 1852 in file "../../mla/framework/usb/src/usb_device.c"
 10025 ;; Parameters:    Size  Location     Type
 10026 ;;		None
 10027 ;; Auto vars:     Size  Location     Type
 10028 ;;  byteToRead      1    1[COMRAM] unsigned char 
 10029 ;;  i               1    0[COMRAM] unsigned char 
 10030 ;; Return value:  Size  Location     Type
 10031 ;;                  1    wreg      void 
 10032 ;; Registers used:
 10033 ;;		wreg, fsr1l, fsr1h, fsr2l, fsr2h, status,2, status,0, prodl, prodh, cstack
 10034 ;; Tracked objects:
 10035 ;;		On entry : 0/0
 10036 ;;		On exit  : 0/0
 10037 ;;		Unchanged: 0/0
 10038 ;; Data sizes:     COMRAM   BANK0   BANK1
 10039 ;;      Params:         0       0       0
 10040 ;;      Locals:         2       0       0
 10041 ;;      Temps:          0       0       0
 10042 ;;      Totals:         2       0       0
 10043 ;;Total ram usage:        2 bytes
 10044 ;; Hardware stack levels used:    1
 10045 ;; Hardware stack levels required when called:    1
 10046 ;; This function calls:
 10047 ;;		_USBCtrlEPAllowStatusStage
 10048 ;; This function is called by:
 10049 ;;		_USBCtrlTrfOutHandler
 10050 ;; This function uses a non-reentrant model
 10051 ;;
 10052                           
 10053                           	psect	text49
 10054  001388                     __ptext49:
 10055                           	opt stack 0
 10056  001388                     _USBCtrlTrfRxService:
 10057                           	opt stack 22
 10058                           
 10059                           ;usb_device.c: 1854: uint8_t byteToRead;
 10060                           ;usb_device.c: 1855: uint8_t i;
 10061                           ;usb_device.c: 1859: byteToRead = pBDTEntryEP0OutCurrent->CNT;
 10062                           
 10063                           ;incstack = 0
 10064  001388  EE20 F001          	lfsr	2,1
 10065  00138C  503B               	movf	_pBDTEntryEP0OutCurrent,w,c
 10066  00138E  26D9               	addwf	fsr2l,f,c
 10067  001390  503C               	movf	_pBDTEntryEP0OutCurrent+1,w,c
 10068  001392  22DA               	addwfc	fsr2h,f,c
 10069  001394  50DF               	movf	indf2,w,c
 10070  001396  6E02               	movwf	USBCtrlTrfRxService@byteToRead,c
 10071                           
 10072                           ;usb_device.c: 1865: if(byteToRead > outPipes[0].wCount.Val)
 10073  001398  5002               	movf	USBCtrlTrfRxService@byteToRead,w,c
 10074  00139A  0100               	movlb	0	; () banked
 10075  00139C  5D64               	subwf	(_outPipes+4)& (0+255),w,b	;volatile
 10076  00139E  0E00               	movlw	0
 10077  0013A0  5965               	subwfb	(_outPipes+5)& (0+255),w,b	;volatile
 10078  0013A2  A0D8               	btfss	status,0,c
 10079                           
 10080                           ; BSR set to: 0
 10081                           ;usb_device.c: 1866: {
 10082                           ;usb_device.c: 1867: byteToRead = outPipes[0].wCount.Val;
 10083  0013A4  C064  F002         	movff	_outPipes+4,USBCtrlTrfRxService@byteToRead	;volatile
 10084                           
 10085                           ; BSR set to: 0
 10086                           ;usb_device.c: 1868: }
 10087                           ;usb_device.c: 1870: outPipes[0].wCount.Val -= byteToRead;
 10088                           
 10089                           ; BSR set to: 0
 10090  0013A8  5002               	movf	USBCtrlTrfRxService@byteToRead,w,c
 10091  0013AA  0100               	movlb	0	; () banked
 10092  0013AC  5F64               	subwf	(_outPipes+4)& (0+255),f,b	;volatile
 10093  0013AE  0E00               	movlw	0
 10094  0013B0  5B65               	subwfb	(_outPipes+5)& (0+255),f,b	;volatile
 10095                           
 10096                           ; BSR set to: 0
 10097                           ;usb_device.c: 1874: for(i=0;i<byteToRead;i++)
 10098  0013B2  0E00               	movlw	0
 10099  0013B4  6E01               	movwf	USBCtrlTrfRxService@i,c
 10100  0013B6  D012               	goto	i2l3346
 10101  0013B8                     i2l3340:
 10102                           
 10103                           ; BSR set to: 0
 10104                           ;usb_device.c: 1875: {
 10105                           ;usb_device.c: 1876: *outPipes[0].pDst.bRam++ = CtrlTrfData[i];
 10106  0013B8  5001               	movf	USBCtrlTrfRxService@i,w,c
 10107  0013BA  0D01               	mullw	1
 10108  0013BC  0E38               	movlw	56
 10109  0013BE  24F3               	addwf	prodl,w,c
 10110  0013C0  6ED9               	movwf	fsr2l,c
 10111  0013C2  0E02               	movlw	2
 10112  0013C4  20F4               	addwfc	prodh,w,c
 10113  0013C6  6EDA               	movwf	fsr2h,c
 10114  0013C8  C060  FFE1         	movff	_outPipes,fsr1l	;volatile
 10115  0013CC  C061  FFE2         	movff	_outPipes+1,fsr1h	;volatile
 10116  0013D0  CFDF FFE7          	movff	indf2,indf1
 10117                           
 10118                           ; BSR set to: 0
 10119  0013D4  0100               	movlb	0	; () banked
 10120  0013D6  4B60               	infsnz	_outPipes& (0+255),f,b	;volatile
 10121  0013D8  2B61               	incf	(_outPipes+1)& (0+255),f,b	;volatile
 10122                           
 10123                           ; BSR set to: 0
 10124  0013DA  2A01               	incf	USBCtrlTrfRxService@i,f,c
 10125  0013DC                     i2l3346:
 10126                           
 10127                           ; BSR set to: 0
 10128  0013DC  5002               	movf	USBCtrlTrfRxService@byteToRead,w,c
 10129  0013DE  5C01               	subwf	USBCtrlTrfRxService@i,w,c
 10130  0013E0  A0D8               	btfss	status,0,c
 10131  0013E2  D7EA               	goto	i2l3340
 10132                           
 10133                           ; BSR set to: 0
 10134                           ;usb_device.c: 1877: }
 10135                           ;usb_device.c: 1881: if(outPipes[0].wCount.Val > 0)
 10136                           
 10137                           ; BSR set to: 0
 10138  0013E4  0100               	movlb	0	; () banked
 10139  0013E6  5164               	movf	(_outPipes+4)& (0+255),w,b	;volatile
 10140  0013E8  0100               	movlb	0	; () banked
 10141  0013EA  1165               	iorwf	(_outPipes+5)& (0+255),w,b	;volatile
 10142  0013EC  B4D8               	btfsc	status,2,c
 10143  0013EE  D032               	goto	i2l3362
 10144                           
 10145                           ; BSR set to: 0
 10146                           ;usb_device.c: 1882: {
 10147                           ;usb_device.c: 1883: pBDTEntryEP0OutNext->CNT = 8;
 10148  0013F0  EE20 F001          	lfsr	2,1
 10149  0013F4  503D               	movf	_pBDTEntryEP0OutNext,w,c
 10150  0013F6  26D9               	addwf	fsr2l,f,c
 10151  0013F8  503E               	movf	_pBDTEntryEP0OutNext+1,w,c
 10152  0013FA  22DA               	addwfc	fsr2h,f,c
 10153  0013FC  0E08               	movlw	8
 10154  0013FE  6EDF               	movwf	indf2,c
 10155                           
 10156                           ;usb_device.c: 1884: pBDTEntryEP0OutNext->ADR = ((uint16_t)(&CtrlTrfData));
 10157  001400  EE20 F002          	lfsr	2,2
 10158  001404  503D               	movf	_pBDTEntryEP0OutNext,w,c
 10159  001406  26D9               	addwf	fsr2l,f,c
 10160  001408  503E               	movf	_pBDTEntryEP0OutNext+1,w,c
 10161  00140A  22DA               	addwfc	fsr2h,f,c
 10162  00140C  0E38               	movlw	56
 10163  00140E  6EDE               	movwf	postinc2,c
 10164  001410  0E02               	movlw	2
 10165  001412  6EDD               	movwf	postdec2,c
 10166                           
 10167                           ; BSR set to: 0
 10168                           ;usb_device.c: 1885: if(pBDTEntryEP0OutCurrent->STAT.DTS == 0)
 10169  001414  C03B  FFD9         	movff	_pBDTEntryEP0OutCurrent,fsr2l
 10170  001418  C03C  FFDA         	movff	_pBDTEntryEP0OutCurrent+1,fsr2h
 10171  00141C  BCDF               	btfsc	indf2,6,c
 10172  00141E  D00D               	goto	i2l3358
 10173                           
 10174                           ; BSR set to: 0
 10175                           ;usb_device.c: 1886: {
 10176                           ;usb_device.c: 1887: pBDTEntryEP0OutNext->STAT.Val = 0x40|(0x08 & 0x08);
 10177  001420  C03D  FFD9         	movff	_pBDTEntryEP0OutNext,fsr2l
 10178  001424  C03E  FFDA         	movff	_pBDTEntryEP0OutNext+1,fsr2h
 10179  001428  0E48               	movlw	72
 10180  00142A  6EDF               	movwf	indf2,c
 10181                           
 10182                           ; BSR set to: 0
 10183                           ;usb_device.c: 1888: pBDTEntryEP0OutNext->STAT.Val |= 0x80;
 10184  00142C  C03D  FFD9         	movff	_pBDTEntryEP0OutNext,fsr2l
 10185  001430  C03E  FFDA         	movff	_pBDTEntryEP0OutNext+1,fsr2h
 10186  001434  0E00               	movlw	0
 10187  001436  8EDB               	bsf	plusw2,7,c
 10188                           
 10189                           ;usb_device.c: 1889: }
 10190  001438  0012               	return	
 10191  00143A                     i2l3358:
 10192                           
 10193                           ; BSR set to: 0
 10194                           ;usb_device.c: 1890: else
 10195                           ;usb_device.c: 1891: {
 10196                           ;usb_device.c: 1892: pBDTEntryEP0OutNext->STAT.Val = 0x00|(0x08 & 0x08);
 10197  00143A  C03D  FFD9         	movff	_pBDTEntryEP0OutNext,fsr2l
 10198  00143E  C03E  FFDA         	movff	_pBDTEntryEP0OutNext+1,fsr2h
 10199  001442  0E08               	movlw	8
 10200  001444  6EDF               	movwf	indf2,c
 10201                           
 10202                           ; BSR set to: 0
 10203                           ;usb_device.c: 1893: pBDTEntryEP0OutNext->STAT.Val |= 0x80;
 10204  001446  C03D  FFD9         	movff	_pBDTEntryEP0OutNext,fsr2l
 10205  00144A  C03E  FFDA         	movff	_pBDTEntryEP0OutNext+1,fsr2h
 10206  00144E  0E00               	movlw	0
 10207  001450  8EDB               	bsf	plusw2,7,c
 10208                           
 10209                           ; BSR set to: 0
 10210                           ;usb_device.c: 1894: }
 10211                           ;usb_device.c: 1895: }
 10212  001452  0012               	return	
 10213  001454                     i2l3362:
 10214                           
 10215                           ; BSR set to: 0
 10216                           ;usb_device.c: 1896: else
 10217                           ;usb_device.c: 1897: {
 10218                           ;usb_device.c: 1901: pBDTEntryEP0OutNext->CNT = 8;
 10219  001454  EE20 F001          	lfsr	2,1
 10220  001458  503D               	movf	_pBDTEntryEP0OutNext,w,c
 10221  00145A  26D9               	addwf	fsr2l,f,c
 10222  00145C  503E               	movf	_pBDTEntryEP0OutNext+1,w,c
 10223  00145E  22DA               	addwfc	fsr2h,f,c
 10224  001460  0E08               	movlw	8
 10225  001462  6EDF               	movwf	indf2,c
 10226                           
 10227                           ;usb_device.c: 1902: pBDTEntryEP0OutNext->ADR = ((uint16_t)(&SetupPkt));
 10228  001464  EE20 F002          	lfsr	2,2
 10229  001468  503D               	movf	_pBDTEntryEP0OutNext,w,c
 10230  00146A  26D9               	addwf	fsr2l,f,c
 10231  00146C  503E               	movf	_pBDTEntryEP0OutNext+1,w,c
 10232  00146E  22DA               	addwfc	fsr2h,f,c
 10233  001470  0E30               	movlw	48
 10234  001472  6EDE               	movwf	postinc2,c
 10235  001474  0E02               	movlw	2
 10236  001476  6EDD               	movwf	postdec2,c
 10237                           
 10238                           ; BSR set to: 0
 10239                           ;usb_device.c: 1906: pBDTEntryEP0OutNext->STAT.Val = 0x04;
 10240  001478  C03D  FFD9         	movff	_pBDTEntryEP0OutNext,fsr2l
 10241  00147C  C03E  FFDA         	movff	_pBDTEntryEP0OutNext+1,fsr2h
 10242  001480  0E04               	movlw	4
 10243  001482  6EDF               	movwf	indf2,c
 10244                           
 10245                           ; BSR set to: 0
 10246                           ;usb_device.c: 1907: pBDTEntryEP0OutNext->STAT.Val |= 0x80;
 10247  001484  C03D  FFD9         	movff	_pBDTEntryEP0OutNext,fsr2l
 10248  001488  C03E  FFDA         	movff	_pBDTEntryEP0OutNext+1,fsr2h
 10249  00148C  0E00               	movlw	0
 10250  00148E  8EDB               	bsf	plusw2,7,c
 10251                           
 10252                           ; BSR set to: 0
 10253                           ;usb_device.c: 1926: }
 10254                           ;usb_device.c: 1927: outPipes[0].info.bits.busy = 0;
 10255                           
 10256                           ; BSR set to: 0
 10257                           ;usb_device.c: 1915: {
 10258                           ;usb_device.c: 1921: outPipes[0].pFunc();
 10259  001490  0100               	movlb	0	; () banked
 10260  001492  9F63               	bcf	(_outPipes+3)& (0+255),7,b	;volatile
 10261                           
 10262                           ; BSR set to: 0
 10263                           ;usb_device.c: 1941: if(USBDeferStatusStagePacket == 0)
 10264  001494  5048               	movf	_USBDeferStatusStagePacket,w,c	;volatile
 10265  001496  A4D8               	btfss	status,2,c
 10266  001498  0012               	return	
 10267                           
 10268                           ; BSR set to: 0
 10269                           ;usb_device.c: 1942: {
 10270                           ;usb_device.c: 1943: USBCtrlEPAllowStatusStage();
 10271  00149A  EC3F  F00D         	call	_USBCtrlEPAllowStatusStage	;wreg free
 10272  00149E  0012               	return	
 10273  0014A0                     __end_of_USBCtrlTrfRxService:
 10274                           	opt stack 0
 10275                           pclatu	equ	0xFFB
 10276                           pclath	equ	0xFFA
 10277                           tblptru	equ	0xFF8
 10278                           tblptrh	equ	0xFF7
 10279                           tblptrl	equ	0xFF6
 10280                           tablat	equ	0xFF5
 10281                           prodh	equ	0xFF4
 10282                           prodl	equ	0xFF3
 10283                           intcon	equ	0xFF2
 10284                           postinc0	equ	0xFEE
 10285                           fsr0h	equ	0xFEA
 10286                           fsr0l	equ	0xFE9
 10287                           wreg	equ	0xFE8
 10288                           indf1	equ	0xFE7
 10289                           postdec1	equ	0xFE5
 10290                           fsr1h	equ	0xFE2
 10291                           fsr1l	equ	0xFE1
 10292                           indf2	equ	0xFDF
 10293                           postinc2	equ	0xFDE
 10294                           postdec2	equ	0xFDD
 10295                           plusw2	equ	0xFDB
 10296                           fsr2h	equ	0xFDA
 10297                           fsr2l	equ	0xFD9
 10298                           status	equ	0xFD8
 10299                           
 10300 ;; *************** function _USBCtrlEPAllowStatusStage *****************
 10301 ;; Defined at:
 10302 ;;		line 1416 in file "../../mla/framework/usb/src/usb_device.c"
 10303 ;; Parameters:    Size  Location     Type
 10304 ;;		None
 10305 ;; Auto vars:     Size  Location     Type
 10306 ;;		None
 10307 ;; Return value:  Size  Location     Type
 10308 ;;                  1    wreg      void 
 10309 ;; Registers used:
 10310 ;;		wreg, fsr2l, fsr2h, status,2, status,0
 10311 ;; Tracked objects:
 10312 ;;		On entry : 0/0
 10313 ;;		On exit  : 0/0
 10314 ;;		Unchanged: 0/0
 10315 ;; Data sizes:     COMRAM   BANK0   BANK1
 10316 ;;      Params:         0       0       0
 10317 ;;      Locals:         0       0       0
 10318 ;;      Temps:          0       0       0
 10319 ;;      Totals:         0       0       0
 10320 ;;Total ram usage:        0 bytes
 10321 ;; Hardware stack levels used:    1
 10322 ;; This function calls:
 10323 ;;		Nothing
 10324 ;; This function is called by:
 10325 ;;		_USBDeviceTasks
 10326 ;;		_USBCtrlEPServiceComplete
 10327 ;;		_USBCtrlTrfRxService
 10328 ;; This function uses a non-reentrant model
 10329 ;;
 10330                           
 10331                           	psect	text50
 10332  001A7E                     __ptext50:
 10333                           	opt stack 0
 10334  001A7E                     _USBCtrlEPAllowStatusStage:
 10335                           	opt stack 22
 10336                           
 10337                           ;usb_device.c: 1423: if(USBStatusStageEnabledFlag1 == 0)
 10338                           
 10339                           ;incstack = 0
 10340  001A7E  5049               	movf	_USBStatusStageEnabledFlag1,w,c	;volatile
 10341  001A80  A4D8               	btfss	status,2,c
 10342  001A82  0012               	return	
 10343                           
 10344                           ;usb_device.c: 1424: {
 10345                           ;usb_device.c: 1425: USBStatusStageEnabledFlag1 = 1;
 10346  001A84  0E01               	movlw	1
 10347  001A86  6E49               	movwf	_USBStatusStageEnabledFlag1,c	;volatile
 10348                           
 10349                           ;usb_device.c: 1426: if(USBStatusStageEnabledFlag2 == 0)
 10350  001A88  504A               	movf	_USBStatusStageEnabledFlag2,w,c	;volatile
 10351  001A8A  A4D8               	btfss	status,2,c
 10352  001A8C  0012               	return	
 10353                           
 10354                           ;usb_device.c: 1427: {
 10355                           ;usb_device.c: 1428: USBStatusStageEnabledFlag2 = 1;
 10356  001A8E  0E01               	movlw	1
 10357  001A90  6E4A               	movwf	_USBStatusStageEnabledFlag2,c	;volatile
 10358                           
 10359                           ;usb_device.c: 1432: if(controlTransferState == 2)
 10360  001A92  0E02               	movlw	2
 10361  001A94  184C               	xorwf	_controlTransferState,w,c	;volatile
 10362  001A96  A4D8               	btfss	status,2,c
 10363  001A98  D016               	goto	i2l3056
 10364                           
 10365                           ;usb_device.c: 1433: {
 10366                           ;usb_device.c: 1434: pBDTEntryIn[0]->CNT = 0;
 10367  001A9A  0100               	movlb	0	; () banked
 10368  001A9C  EE20 F001          	lfsr	2,1
 10369  001AA0  5168               	movf	_pBDTEntryIn& (0+255),w,b
 10370  001AA2  26D9               	addwf	fsr2l,f,c
 10371  001AA4  5169               	movf	(_pBDTEntryIn+1)& (0+255),w,b
 10372  001AA6  22DA               	addwfc	fsr2h,f,c
 10373  001AA8  0E00               	movlw	0
 10374  001AAA  6EDF               	movwf	indf2,c
 10375                           
 10376                           ; BSR set to: 0
 10377                           ;usb_device.c: 1435: pBDTEntryIn[0]->STAT.Val = 0x40|(0x08 & 0x08);
 10378  001AAC  C068  FFD9         	movff	_pBDTEntryIn,fsr2l
 10379  001AB0  C069  FFDA         	movff	_pBDTEntryIn+1,fsr2h
 10380  001AB4  0E48               	movlw	72
 10381  001AB6  6EDF               	movwf	indf2,c
 10382                           
 10383                           ; BSR set to: 0
 10384                           ;usb_device.c: 1436: pBDTEntryIn[0]->STAT.Val |= 0x80;
 10385  001AB8  C068  FFD9         	movff	_pBDTEntryIn,fsr2l
 10386  001ABC  C069  FFDA         	movff	_pBDTEntryIn+1,fsr2h
 10387  001AC0  0E00               	movlw	0
 10388  001AC2  8EDB               	bsf	plusw2,7,c
 10389                           
 10390                           ;usb_device.c: 1437: }
 10391  001AC4  0012               	return	
 10392  001AC6                     i2l3056:
 10393                           
 10394                           ;usb_device.c: 1438: else if(controlTransferState == 1)
 10395  001AC6  044C               	decf	_controlTransferState,w,c	;volatile
 10396  001AC8  A4D8               	btfss	status,2,c
 10397  001ACA  0012               	return	
 10398                           
 10399                           ;usb_device.c: 1439: {
 10400                           ;usb_device.c: 1440: BothEP0OutUOWNsSet = 0;
 10401  001ACC  0E00               	movlw	0
 10402  001ACE  6E41               	movwf	_BothEP0OutUOWNsSet,c	;volatile
 10403                           
 10404                           ;usb_device.c: 1445: pBDTEntryEP0OutCurrent->CNT = 8;
 10405  001AD0  EE20 F001          	lfsr	2,1
 10406  001AD4  503B               	movf	_pBDTEntryEP0OutCurrent,w,c
 10407  001AD6  26D9               	addwf	fsr2l,f,c
 10408  001AD8  503C               	movf	_pBDTEntryEP0OutCurrent+1,w,c
 10409  001ADA  22DA               	addwfc	fsr2h,f,c
 10410  001ADC  0E08               	movlw	8
 10411  001ADE  6EDF               	movwf	indf2,c
 10412                           
 10413                           ;usb_device.c: 1446: pBDTEntryEP0OutCurrent->ADR = ((uint16_t)(&SetupPkt));
 10414  001AE0  EE20 F002          	lfsr	2,2
 10415  001AE4  503B               	movf	_pBDTEntryEP0OutCurrent,w,c
 10416  001AE6  26D9               	addwf	fsr2l,f,c
 10417  001AE8  503C               	movf	_pBDTEntryEP0OutCurrent+1,w,c
 10418  001AEA  22DA               	addwfc	fsr2h,f,c
 10419  001AEC  0E30               	movlw	48
 10420  001AEE  6EDE               	movwf	postinc2,c
 10421  001AF0  0E02               	movlw	2
 10422  001AF2  6EDD               	movwf	postdec2,c
 10423                           
 10424                           ;usb_device.c: 1447: pBDTEntryEP0OutCurrent->STAT.Val = 0x04;
 10425  001AF4  C03B  FFD9         	movff	_pBDTEntryEP0OutCurrent,fsr2l
 10426  001AF8  C03C  FFDA         	movff	_pBDTEntryEP0OutCurrent+1,fsr2h
 10427  001AFC  0E04               	movlw	4
 10428  001AFE  6EDF               	movwf	indf2,c
 10429                           
 10430                           ;usb_device.c: 1448: pBDTEntryEP0OutCurrent->STAT.Val |= 0x80;
 10431  001B00  C03B  FFD9         	movff	_pBDTEntryEP0OutCurrent,fsr2l
 10432  001B04  C03C  FFDA         	movff	_pBDTEntryEP0OutCurrent+1,fsr2h
 10433  001B08  0E00               	movlw	0
 10434  001B0A  8EDB               	bsf	plusw2,7,c
 10435                           
 10436                           ;usb_device.c: 1449: BothEP0OutUOWNsSet = 1;
 10437  001B0C  0E01               	movlw	1
 10438  001B0E  6E41               	movwf	_BothEP0OutUOWNsSet,c	;volatile
 10439                           
 10440                           ;usb_device.c: 1453: pBDTEntryEP0OutNext->CNT = 8;
 10441  001B10  EE20 F001          	lfsr	2,1
 10442  001B14  503D               	movf	_pBDTEntryEP0OutNext,w,c
 10443  001B16  26D9               	addwf	fsr2l,f,c
 10444  001B18  503E               	movf	_pBDTEntryEP0OutNext+1,w,c
 10445  001B1A  22DA               	addwfc	fsr2h,f,c
 10446  001B1C  0E08               	movlw	8
 10447  001B1E  6EDF               	movwf	indf2,c
 10448                           
 10449                           ;usb_device.c: 1454: pBDTEntryEP0OutNext->ADR = ((uint16_t)(&SetupPkt));
 10450  001B20  EE20 F002          	lfsr	2,2
 10451  001B24  503D               	movf	_pBDTEntryEP0OutNext,w,c
 10452  001B26  26D9               	addwf	fsr2l,f,c
 10453  001B28  503E               	movf	_pBDTEntryEP0OutNext+1,w,c
 10454  001B2A  22DA               	addwfc	fsr2h,f,c
 10455  001B2C  0E30               	movlw	48
 10456  001B2E  6EDE               	movwf	postinc2,c
 10457  001B30  0E02               	movlw	2
 10458  001B32  6EDD               	movwf	postdec2,c
 10459                           
 10460                           ;usb_device.c: 1455: pBDTEntryEP0OutNext->STAT.Val = 0x80;
 10461  001B34  C03D  FFD9         	movff	_pBDTEntryEP0OutNext,fsr2l
 10462  001B38  C03E  FFDA         	movff	_pBDTEntryEP0OutNext+1,fsr2h
 10463  001B3C  0E80               	movlw	128
 10464  001B3E  6EDF               	movwf	indf2,c
 10465  001B40  0012               	return	
 10466  001B42                     __end_of_USBCtrlEPAllowStatusStage:
 10467                           	opt stack 0
 10468                           pclatu	equ	0xFFB
 10469                           pclath	equ	0xFFA
 10470                           tblptru	equ	0xFF8
 10471                           tblptrh	equ	0xFF7
 10472                           tblptrl	equ	0xFF6
 10473                           tablat	equ	0xFF5
 10474                           prodh	equ	0xFF4
 10475                           prodl	equ	0xFF3
 10476                           intcon	equ	0xFF2
 10477                           postinc0	equ	0xFEE
 10478                           fsr0h	equ	0xFEA
 10479                           fsr0l	equ	0xFE9
 10480                           wreg	equ	0xFE8
 10481                           indf1	equ	0xFE7
 10482                           postdec1	equ	0xFE5
 10483                           fsr1h	equ	0xFE2
 10484                           fsr1l	equ	0xFE1
 10485                           indf2	equ	0xFDF
 10486                           postinc2	equ	0xFDE
 10487                           postdec2	equ	0xFDD
 10488                           plusw2	equ	0xFDB
 10489                           fsr2h	equ	0xFDA
 10490                           fsr2l	equ	0xFD9
 10491                           status	equ	0xFD8
 10492                           
 10493 ;; *************** function _USBCtrlTrfInHandler *****************
 10494 ;; Defined at:
 10495 ;;		line 2595 in file "../../mla/framework/usb/src/usb_device.c"
 10496 ;; Parameters:    Size  Location     Type
 10497 ;;		None
 10498 ;; Auto vars:     Size  Location     Type
 10499 ;;  lastDTS         1    1[COMRAM] unsigned char 
 10500 ;; Return value:  Size  Location     Type
 10501 ;;                  1    wreg      void 
 10502 ;; Registers used:
 10503 ;;		wreg, fsr1l, fsr1h, fsr2l, fsr2h, status,2, status,0, tblptrl, tblptrh, tblptru, cstack
 10504 ;; Tracked objects:
 10505 ;;		On entry : 0/0
 10506 ;;		On exit  : 0/0
 10507 ;;		Unchanged: 0/0
 10508 ;; Data sizes:     COMRAM   BANK0   BANK1
 10509 ;;      Params:         0       0       0
 10510 ;;      Locals:         1       0       0
 10511 ;;      Temps:          0       0       0
 10512 ;;      Totals:         1       0       0
 10513 ;;Total ram usage:        1 bytes
 10514 ;; Hardware stack levels used:    1
 10515 ;; Hardware stack levels required when called:    1
 10516 ;; This function calls:
 10517 ;;		_USBCtrlTrfTxService
 10518 ;; This function is called by:
 10519 ;;		_USBCtrlEPService
 10520 ;; This function uses a non-reentrant model
 10521 ;;
 10522                           
 10523                           	psect	text51
 10524  0018EC                     __ptext51:
 10525                           	opt stack 0
 10526  0018EC                     _USBCtrlTrfInHandler:
 10527                           	opt stack 23
 10528                           
 10529                           ;usb_device.c: 2597: uint8_t lastDTS;
 10530                           ;usb_device.c: 2599: lastDTS = pBDTEntryIn[0]->STAT.DTS;
 10531                           
 10532                           ;incstack = 0
 10533  0018EC  C068  FFD9         	movff	_pBDTEntryIn,fsr2l
 10534  0018F0  C069  FFDA         	movff	_pBDTEntryIn+1,fsr2h
 10535  0018F4  0100               	movlb	0	; () banked
 10536  0018F6  0E00               	movlw	0
 10537  0018F8  BCDF               	btfsc	indf2,6,c
 10538  0018FA  0E01               	movlw	1
 10539  0018FC  6E02               	movwf	USBCtrlTrfInHandler@lastDTS,c
 10540                           
 10541                           ; BSR set to: 0
 10542                           ;usb_device.c: 2602: ((uint8_t_VAL*)&pBDTEntryIn[0])->Val ^= 0x0004;
 10543  0018FE  0E04               	movlw	4
 10544  001900  0100               	movlb	0	; () banked
 10545  001902  1B68               	xorwf	_pBDTEntryIn& (0+255),f,b
 10546                           
 10547                           ; BSR set to: 0
 10548                           ;usb_device.c: 2607: if(USBDeviceState == ADR_PENDING_STATE)
 10549  001904  0E08               	movlw	8
 10550  001906  0100               	movlb	0	; () banked
 10551  001908  1986               	xorwf	_USBDeviceState& (0+255),w,b	;volatile
 10552  00190A  A4D8               	btfss	status,2,c
 10553  00190C  D00E               	goto	i2l3542
 10554                           
 10555                           ; BSR set to: 0
 10556                           ;usb_device.c: 2608: {
 10557                           ;usb_device.c: 2609: UADDR = (SetupPkt.bDevADR & 0x7F);
 10558  00190E  0102               	movlb	2	; () banked
 10559  001910  5132               	movf	50,w,b	;volatile
 10560  001912  0B7F               	andlw	127
 10561  001914  010F               	movlb	15	; () banked
 10562  001916  6F5C               	movwf	92,b	;volatile
 10563                           
 10564                           ; BSR set to: 15
 10565                           ;usb_device.c: 2610: if(UADDR != 0u)
 10566  001918  010F               	movlb	15	; () banked
 10567  00191A  515C               	movf	92,w,b	;volatile
 10568  00191C  B4D8               	btfsc	status,2,c
 10569  00191E  D002               	goto	i2l3540
 10570                           
 10571                           ; BSR set to: 15
 10572                           ;usb_device.c: 2611: {
 10573                           ;usb_device.c: 2612: USBDeviceState=ADDRESS_STATE;
 10574  001920  0E10               	movlw	16
 10575  001922  D001               	goto	L61
 10576  001924                     i2l3540:
 10577                           
 10578                           ;usb_device.c: 2614: else
 10579                           ;usb_device.c: 2615: {
 10580                           ;usb_device.c: 2616: USBDeviceState=DEFAULT_STATE;
 10581  001924  0E04               	movlw	4
 10582  001926                     L61:
 10583  001926  0100               	movlb	0	; () banked
 10584  001928  6F86               	movwf	_USBDeviceState& (0+255),b	;volatile
 10585  00192A                     i2l3542:
 10586                           
 10587                           ; BSR set to: 0
 10588                           ;usb_device.c: 2617: }
 10589                           ;usb_device.c: 2618: }
 10590                           ;usb_device.c: 2621: if(controlTransferState == 1)
 10591  00192A  044C               	decf	_controlTransferState,w,c	;volatile
 10592  00192C  A4D8               	btfss	status,2,c
 10593  00192E  D03B               	goto	i2l666
 10594                           
 10595                           ; BSR set to: 0
 10596                           ;usb_device.c: 2622: {
 10597                           ;usb_device.c: 2623: pBDTEntryIn[0]->ADR = ((uint16_t)(CtrlTrfData));
 10598  001930  0100               	movlb	0	; () banked
 10599  001932  EE20 F002          	lfsr	2,2
 10600  001936  5168               	movf	_pBDTEntryIn& (0+255),w,b
 10601  001938  26D9               	addwf	fsr2l,f,c
 10602  00193A  5169               	movf	(_pBDTEntryIn+1)& (0+255),w,b
 10603  00193C  22DA               	addwfc	fsr2h,f,c
 10604  00193E  0E38               	movlw	56
 10605  001940  6EDE               	movwf	postinc2,c
 10606  001942  0E02               	movlw	2
 10607  001944  6EDD               	movwf	postdec2,c
 10608                           
 10609                           ; BSR set to: 0
 10610                           ;usb_device.c: 2624: USBCtrlTrfTxService();
 10611  001946  ECDB  F00C         	call	_USBCtrlTrfTxService	;wreg free
 10612                           
 10613                           ;usb_device.c: 2630: if(shortPacketStatus == 2)
 10614  00194A  0E02               	movlw	2
 10615  00194C  184E               	xorwf	_shortPacketStatus,w,c	;volatile
 10616  00194E  A4D8               	btfss	status,2,c
 10617  001950  D00D               	goto	i2l3554
 10618                           
 10619                           ;usb_device.c: 2631: {
 10620                           ;usb_device.c: 2634: pBDTEntryIn[0]->STAT.Val = 0x04;
 10621  001952  C068  FFD9         	movff	_pBDTEntryIn,fsr2l
 10622  001956  C069  FFDA         	movff	_pBDTEntryIn+1,fsr2h
 10623  00195A  0E04               	movlw	4
 10624  00195C  6EDF               	movwf	indf2,c
 10625                           
 10626                           ;usb_device.c: 2635: pBDTEntryIn[0]->STAT.Val |= 0x80;
 10627  00195E  C068  FFD9         	movff	_pBDTEntryIn,fsr2l
 10628  001962  C069  FFDA         	movff	_pBDTEntryIn+1,fsr2h
 10629  001966  0E00               	movlw	0
 10630  001968  8EDB               	bsf	plusw2,7,c
 10631                           
 10632                           ;usb_device.c: 2636: }
 10633  00196A  0012               	return	
 10634  00196C                     i2l3554:
 10635                           
 10636                           ;usb_device.c: 2637: else
 10637                           ;usb_device.c: 2638: {
 10638                           ;usb_device.c: 2639: if(lastDTS == 0)
 10639  00196C  5002               	movf	USBCtrlTrfInHandler@lastDTS,w,c
 10640  00196E  A4D8               	btfss	status,2,c
 10641  001970  D00D               	goto	i2l3560
 10642                           
 10643                           ;usb_device.c: 2640: {
 10644                           ;usb_device.c: 2641: pBDTEntryIn[0]->STAT.Val = 0x40|(0x08 & 0x08);
 10645  001972  C068  FFD9         	movff	_pBDTEntryIn,fsr2l
 10646  001976  C069  FFDA         	movff	_pBDTEntryIn+1,fsr2h
 10647  00197A  0E48               	movlw	72
 10648  00197C  6EDF               	movwf	indf2,c
 10649                           
 10650                           ;usb_device.c: 2642: pBDTEntryIn[0]->STAT.Val |= 0x80;
 10651  00197E  C068  FFD9         	movff	_pBDTEntryIn,fsr2l
 10652  001982  C069  FFDA         	movff	_pBDTEntryIn+1,fsr2h
 10653  001986  0E00               	movlw	0
 10654  001988  8EDB               	bsf	plusw2,7,c
 10655                           
 10656                           ;usb_device.c: 2643: }
 10657  00198A  0012               	return	
 10658  00198C                     i2l3560:
 10659                           
 10660                           ;usb_device.c: 2644: else
 10661                           ;usb_device.c: 2645: {
 10662                           ;usb_device.c: 2646: pBDTEntryIn[0]->STAT.Val = 0x00|(0x08 & 0x08);
 10663  00198C  C068  FFD9         	movff	_pBDTEntryIn,fsr2l
 10664  001990  C069  FFDA         	movff	_pBDTEntryIn+1,fsr2h
 10665  001994  0E08               	movlw	8
 10666  001996  6EDF               	movwf	indf2,c
 10667                           
 10668                           ;usb_device.c: 2647: pBDTEntryIn[0]->STAT.Val |= 0x80;
 10669  001998  C068  FFD9         	movff	_pBDTEntryIn,fsr2l
 10670  00199C  C069  FFDA         	movff	_pBDTEntryIn+1,fsr2h
 10671  0019A0  0E00               	movlw	0
 10672  0019A2  8EDB               	bsf	plusw2,7,c
 10673                           
 10674                           ;usb_device.c: 2648: }
 10675                           ;usb_device.c: 2649: }
 10676                           ;usb_device.c: 2650: }
 10677  0019A4  0012               	return	
 10678  0019A6                     i2l666:
 10679                           
 10680                           ; BSR set to: 0
 10681                           ;usb_device.c: 2651: else
 10682                           ;usb_device.c: 2652: {
 10683                           ;usb_device.c: 2656: if(outPipes[0].info.bits.busy == 1)
 10684  0019A6  0100               	movlb	0	; () banked
 10685  0019A8  AF63               	btfss	(_outPipes+3)& (0+255),7,b	;volatile
 10686  0019AA  D002               	goto	i2l3566
 10687                           
 10688                           ; BSR set to: 0
 10689                           ;usb_device.c: 2661: }
 10690                           ;usb_device.c: 2662: outPipes[0].info.bits.busy = 0;
 10691                           
 10692                           ; BSR set to: 0
 10693                           ;usb_device.c: 2659: {
 10694                           ;usb_device.c: 2660: outPipes[0].pFunc();
 10695  0019AC  0100               	movlb	0	; () banked
 10696  0019AE  9F63               	bcf	(_outPipes+3)& (0+255),7,b	;volatile
 10697  0019B0                     i2l3566:
 10698                           
 10699                           ; BSR set to: 0
 10700                           ;usb_device.c: 2663: }
 10701                           ;usb_device.c: 2665: controlTransferState = 0;
 10702  0019B0  0E00               	movlw	0
 10703  0019B2  6E4C               	movwf	_controlTransferState,c	;volatile
 10704  0019B4  0012               	return	
 10705  0019B6                     __end_of_USBCtrlTrfInHandler:
 10706                           	opt stack 0
 10707                           pclatu	equ	0xFFB
 10708                           pclath	equ	0xFFA
 10709                           tblptru	equ	0xFF8
 10710                           tblptrh	equ	0xFF7
 10711                           tblptrl	equ	0xFF6
 10712                           tablat	equ	0xFF5
 10713                           prodh	equ	0xFF4
 10714                           prodl	equ	0xFF3
 10715                           intcon	equ	0xFF2
 10716                           postinc0	equ	0xFEE
 10717                           fsr0h	equ	0xFEA
 10718                           fsr0l	equ	0xFE9
 10719                           wreg	equ	0xFE8
 10720                           indf1	equ	0xFE7
 10721                           postdec1	equ	0xFE5
 10722                           fsr1h	equ	0xFE2
 10723                           fsr1l	equ	0xFE1
 10724                           indf2	equ	0xFDF
 10725                           postinc2	equ	0xFDE
 10726                           postdec2	equ	0xFDD
 10727                           plusw2	equ	0xFDB
 10728                           fsr2h	equ	0xFDA
 10729                           fsr2l	equ	0xFD9
 10730                           status	equ	0xFD8
 10731                           
 10732 ;; *************** function _USBCtrlTrfTxService *****************
 10733 ;; Defined at:
 10734 ;;		line 1771 in file "../../mla/framework/usb/src/usb_device.c"
 10735 ;; Parameters:    Size  Location     Type
 10736 ;;		None
 10737 ;; Auto vars:     Size  Location     Type
 10738 ;;  byteToSend      1    0[COMRAM] unsigned char 
 10739 ;; Return value:  Size  Location     Type
 10740 ;;                  1    wreg      void 
 10741 ;; Registers used:
 10742 ;;		wreg, fsr1l, fsr1h, fsr2l, fsr2h, status,2, status,0, tblptrl, tblptrh, tblptru
 10743 ;; Tracked objects:
 10744 ;;		On entry : 0/0
 10745 ;;		On exit  : 0/0
 10746 ;;		Unchanged: 0/0
 10747 ;; Data sizes:     COMRAM   BANK0   BANK1
 10748 ;;      Params:         0       0       0
 10749 ;;      Locals:         1       0       0
 10750 ;;      Temps:          0       0       0
 10751 ;;      Totals:         1       0       0
 10752 ;;Total ram usage:        1 bytes
 10753 ;; Hardware stack levels used:    1
 10754 ;; This function calls:
 10755 ;;		Nothing
 10756 ;; This function is called by:
 10757 ;;		_USBCtrlEPAllowDataStage
 10758 ;;		_USBCtrlTrfInHandler
 10759 ;; This function uses a non-reentrant model
 10760 ;;
 10761                           
 10762                           	psect	text52
 10763  0019B6                     __ptext52:
 10764                           	opt stack 0
 10765  0019B6                     _USBCtrlTrfTxService:
 10766                           	opt stack 21
 10767                           
 10768                           ;usb_device.c: 1773: uint8_t byteToSend;
 10769                           ;usb_device.c: 1777: byteToSend = 8;
 10770                           
 10771                           ;incstack = 0
 10772  0019B6  0E08               	movlw	8
 10773  0019B8  6E01               	movwf	USBCtrlTrfTxService@byteToSend,c
 10774                           
 10775                           ;usb_device.c: 1778: if(inPipes[0].wCount.Val < (uint8_t)8)
 10776  0019BA  5038               	movf	_inPipes+5,w,c	;volatile
 10777  0019BC  E110               	bnz	i2l3004
 10778  0019BE  0E08               	movlw	8
 10779  0019C0  5C37               	subwf	_inPipes+4,w,c	;volatile
 10780  0019C2  B0D8               	btfsc	status,0,c
 10781  0019C4  D00C               	goto	i2l3004
 10782                           
 10783                           ;usb_device.c: 1779: {
 10784                           ;usb_device.c: 1780: byteToSend = inPipes[0].wCount.Val;
 10785  0019C6  C037  F001         	movff	_inPipes+4,USBCtrlTrfTxService@byteToSend	;volatile
 10786                           
 10787                           ;usb_device.c: 1787: if(shortPacketStatus == 0)
 10788  0019CA  504E               	movf	_shortPacketStatus,w,c	;volatile
 10789  0019CC  A4D8               	btfss	status,2,c
 10790  0019CE  D002               	goto	i2l3000
 10791                           
 10792                           ;usb_device.c: 1788: {
 10793                           ;usb_device.c: 1789: shortPacketStatus = 1;
 10794  0019D0  0E01               	movlw	1
 10795  0019D2  D004               	goto	L62
 10796  0019D4                     i2l3000:
 10797                           
 10798                           ;usb_device.c: 1791: else if(shortPacketStatus == 1)
 10799  0019D4  044E               	decf	_shortPacketStatus,w,c	;volatile
 10800  0019D6  A4D8               	btfss	status,2,c
 10801  0019D8  D002               	goto	i2l3004
 10802                           
 10803                           ;usb_device.c: 1792: {
 10804                           ;usb_device.c: 1793: shortPacketStatus = 2;
 10805  0019DA  0E02               	movlw	2
 10806  0019DC                     L62:
 10807  0019DC  6E4E               	movwf	_shortPacketStatus,c	;volatile
 10808  0019DE                     i2l3004:
 10809                           
 10810                           ;usb_device.c: 1794: }
 10811                           ;usb_device.c: 1795: }
 10812                           ;usb_device.c: 1799: inPipes[0].wCount.Val -= byteToSend;
 10813  0019DE  5001               	movf	USBCtrlTrfTxService@byteToSend,w,c
 10814  0019E0  5E37               	subwf	_inPipes+4,f,c	;volatile
 10815  0019E2  0E00               	movlw	0
 10816  0019E4  5A38               	subwfb	_inPipes+5,f,c	;volatile
 10817                           
 10818                           ;usb_device.c: 1804: pBDTEntryIn[0]->CNT = byteToSend;
 10819  0019E6  0100               	movlb	0	; () banked
 10820  0019E8  EE20 F001          	lfsr	2,1
 10821  0019EC  5168               	movf	_pBDTEntryIn& (0+255),w,b
 10822  0019EE  26D9               	addwf	fsr2l,f,c
 10823  0019F0  5169               	movf	(_pBDTEntryIn+1)& (0+255),w,b
 10824  0019F2  22DA               	addwfc	fsr2h,f,c
 10825  0019F4  C001  FFDF         	movff	USBCtrlTrfTxService@byteToSend,indf2
 10826                           
 10827                           ; BSR set to: 0
 10828                           ;usb_device.c: 1808: pDst = (volatile uint8_t*)CtrlTrfData;
 10829  0019F8  0E38               	movlw	56
 10830  0019FA  6E3F               	movwf	_pDst,c
 10831  0019FC  0E02               	movlw	2
 10832  0019FE  6E40               	movwf	_pDst+1,c
 10833                           
 10834                           ; BSR set to: 0
 10835                           ;usb_device.c: 1809: if(inPipes[0].info.bits.ctrl_trf_mem == 0x00)
 10836  001A00  A036               	btfss	_inPipes+3,0,c	;volatile
 10837  001A02  D01B               	goto	i2l3022
 10838  001A04  D038               	goto	i2l3032
 10839  001A06                     i2l3014:
 10840                           
 10841                           ;usb_device.c: 1812: {
 10842                           ;usb_device.c: 1813: *pDst++ = *inPipes[0].pSrc.bRom++;
 10843  001A06  C033  FFF6         	movff	_inPipes,tblptrl	;volatile
 10844  001A0A  C034  FFF7         	movff	_inPipes+1,tblptrh	;volatile
 10845  001A0E  6AF8               	clrf	tblptru,c
 10846  001A10  C03F  FFD9         	movff	_pDst,fsr2l
 10847  001A14  C040  FFDA         	movff	_pDst+1,fsr2h
 10848  001A18  0E02               	movlw	(high __ramtop+-1)
 10849  001A1A  64F7               	cpfsgt	tblptrh,c
 10850  001A1C  D003               	bra	i2u198_47
 10851  001A1E  0008               	tblrd		*
 10852  001A20  50F5               	movf	tablat,w,c
 10853  001A22  D005               	bra	i2u198_40
 10854  001A24                     i2u198_47:
 10855  001A24  CFF6 FFE1          	movff	tblptrl,fsr1l
 10856  001A28  CFF7 FFE2          	movff	tblptrh,fsr1h
 10857  001A2C  50E7               	movf	indf1,w,c
 10858  001A2E                     i2u198_40:
 10859  001A2E  6EDF               	movwf	indf2,c
 10860  001A30  4A33               	infsnz	_inPipes,f,c	;volatile
 10861  001A32  2A34               	incf	_inPipes+1,f,c	;volatile
 10862  001A34  4A3F               	infsnz	_pDst,f,c
 10863  001A36  2A40               	incf	_pDst+1,f,c
 10864                           
 10865                           ;usb_device.c: 1814: byteToSend--;
 10866  001A38  0601               	decf	USBCtrlTrfTxService@byteToSend,f,c
 10867  001A3A                     i2l3022:
 10868  001A3A  5001               	movf	USBCtrlTrfTxService@byteToSend,w,c
 10869  001A3C  B4D8               	btfsc	status,2,c
 10870  001A3E  0012               	return	
 10871  001A40  D7E2               	goto	i2l3014
 10872  001A42                     i2l3024:
 10873                           
 10874                           ;usb_device.c: 1820: {
 10875                           ;usb_device.c: 1821: *pDst++ = *inPipes[0].pSrc.bRam++;
 10876  001A42  C033  FFF6         	movff	_inPipes,tblptrl	;volatile
 10877  001A46  C034  FFF7         	movff	_inPipes+1,tblptrh	;volatile
 10878  001A4A  6AF8               	clrf	tblptru,c
 10879  001A4C  C03F  FFD9         	movff	_pDst,fsr2l
 10880  001A50  C040  FFDA         	movff	_pDst+1,fsr2h
 10881  001A54  0E02               	movlw	(high __ramtop+-1)
 10882  001A56  64F7               	cpfsgt	tblptrh,c
 10883  001A58  D003               	bra	i2u200_47
 10884  001A5A  0008               	tblrd		*
 10885  001A5C  50F5               	movf	tablat,w,c
 10886  001A5E  D005               	bra	i2u200_40
 10887  001A60                     i2u200_47:
 10888  001A60  CFF6 FFE1          	movff	tblptrl,fsr1l
 10889  001A64  CFF7 FFE2          	movff	tblptrh,fsr1h
 10890  001A68  50E7               	movf	indf1,w,c
 10891  001A6A                     i2u200_40:
 10892  001A6A  6EDF               	movwf	indf2,c
 10893  001A6C  4A33               	infsnz	_inPipes,f,c	;volatile
 10894  001A6E  2A34               	incf	_inPipes+1,f,c	;volatile
 10895  001A70  4A3F               	infsnz	_pDst,f,c
 10896  001A72  2A40               	incf	_pDst+1,f,c
 10897                           
 10898                           ;usb_device.c: 1822: byteToSend--;
 10899  001A74  0601               	decf	USBCtrlTrfTxService@byteToSend,f,c
 10900  001A76                     i2l3032:
 10901  001A76  5001               	movf	USBCtrlTrfTxService@byteToSend,w,c
 10902  001A78  B4D8               	btfsc	status,2,c
 10903  001A7A  0012               	return	
 10904  001A7C  D7E2               	goto	i2l3024
 10905  001A7E                     __end_of_USBCtrlTrfTxService:
 10906                           	opt stack 0
 10907                           pclatu	equ	0xFFB
 10908                           pclath	equ	0xFFA
 10909                           tblptru	equ	0xFF8
 10910                           tblptrh	equ	0xFF7
 10911                           tblptrl	equ	0xFF6
 10912                           tablat	equ	0xFF5
 10913                           prodh	equ	0xFF4
 10914                           prodl	equ	0xFF3
 10915                           intcon	equ	0xFF2
 10916                           postinc0	equ	0xFEE
 10917                           fsr0h	equ	0xFEA
 10918                           fsr0l	equ	0xFE9
 10919                           wreg	equ	0xFE8
 10920                           indf1	equ	0xFE7
 10921                           postdec1	equ	0xFE5
 10922                           fsr1h	equ	0xFE2
 10923                           fsr1l	equ	0xFE1
 10924                           indf2	equ	0xFDF
 10925                           postinc2	equ	0xFDE
 10926                           postdec2	equ	0xFDD
 10927                           plusw2	equ	0xFDB
 10928                           fsr2h	equ	0xFDA
 10929                           fsr2l	equ	0xFD9
 10930                           status	equ	0xFD8
 10931                           pclatu	equ	0xFFB
 10932                           pclath	equ	0xFFA
 10933                           tblptru	equ	0xFF8
 10934                           tblptrh	equ	0xFF7
 10935                           tblptrl	equ	0xFF6
 10936                           tablat	equ	0xFF5
 10937                           prodh	equ	0xFF4
 10938                           prodl	equ	0xFF3
 10939                           intcon	equ	0xFF2
 10940                           postinc0	equ	0xFEE
 10941                           fsr0h	equ	0xFEA
 10942                           fsr0l	equ	0xFE9
 10943                           wreg	equ	0xFE8
 10944                           indf1	equ	0xFE7
 10945                           postdec1	equ	0xFE5
 10946                           fsr1h	equ	0xFE2
 10947                           fsr1l	equ	0xFE1
 10948                           indf2	equ	0xFDF
 10949                           postinc2	equ	0xFDE
 10950                           postdec2	equ	0xFDD
 10951                           plusw2	equ	0xFDB
 10952                           fsr2h	equ	0xFDA
 10953                           fsr2l	equ	0xFD9
 10954                           status	equ	0xFD8
 10955                           
 10956                           	psect	rparam
 10957  0000                     pclatu	equ	0xFFB
 10958                           pclath	equ	0xFFA
 10959                           tblptru	equ	0xFF8
 10960                           tblptrh	equ	0xFF7
 10961                           tblptrl	equ	0xFF6
 10962                           tablat	equ	0xFF5
 10963                           prodh	equ	0xFF4
 10964                           prodl	equ	0xFF3
 10965                           intcon	equ	0xFF2
 10966                           postinc0	equ	0xFEE
 10967                           fsr0h	equ	0xFEA
 10968                           fsr0l	equ	0xFE9
 10969                           wreg	equ	0xFE8
 10970                           indf1	equ	0xFE7
 10971                           postdec1	equ	0xFE5
 10972                           fsr1h	equ	0xFE2
 10973                           fsr1l	equ	0xFE1
 10974                           indf2	equ	0xFDF
 10975                           postinc2	equ	0xFDE
 10976                           postdec2	equ	0xFDD
 10977                           plusw2	equ	0xFDB
 10978                           fsr2h	equ	0xFDA
 10979                           fsr2l	equ	0xFD9
 10980                           status	equ	0xFD8
 10981                           
 10982                           	psect	temp
 10983  000052                     btemp:
 10984                           	opt stack 0
 10985  000052                     	ds	1
 10986  0000                     int$flags	set	btemp
 10987                           pclatu	equ	0xFFB
 10988                           pclath	equ	0xFFA
 10989                           tblptru	equ	0xFF8
 10990                           tblptrh	equ	0xFF7
 10991                           tblptrl	equ	0xFF6
 10992                           tablat	equ	0xFF5
 10993                           prodh	equ	0xFF4
 10994                           prodl	equ	0xFF3
 10995                           intcon	equ	0xFF2
 10996                           postinc0	equ	0xFEE
 10997                           fsr0h	equ	0xFEA
 10998                           fsr0l	equ	0xFE9
 10999                           wreg	equ	0xFE8
 11000                           indf1	equ	0xFE7
 11001                           postdec1	equ	0xFE5
 11002                           fsr1h	equ	0xFE2
 11003                           fsr1l	equ	0xFE1
 11004                           indf2	equ	0xFDF
 11005                           postinc2	equ	0xFDE
 11006                           postdec2	equ	0xFDD
 11007                           plusw2	equ	0xFDB
 11008                           fsr2h	equ	0xFDA
 11009                           fsr2l	equ	0xFD9
 11010                           status	equ	0xFD8


Data Sizes:
    Strings     0
    Constant    376
    Data        0
    BSS         328
    Persistent  2
    Stack       0

Auto Spaces:
    Space          Size  Autos    Used
    COMRAM           94     50      81
    BANK0           160     17      60
    BANK1           256      0     256

Pointer List with Targets:

    USER_USB_CALLBACK_EVENT_HANDLER@pdata	PTR void  size(2) Largest target is 48
		 -> USTATcopy(COMRAM[1]), USBActiveConfiguration(COMRAM[1]), BDT(BIGRAMl[48]), NULL(NULL[0]), 

    memset@p1	PTR void  size(2) Largest target is 48
		 -> USBAlternateInterface(COMRAM[1]), BDT(BIGRAMl[48]), UEP1(SFR[1]), 

    memset@p	PTR unsigned char  size(2) Largest target is 48
		 -> USBAlternateInterface(COMRAM[1]), BDT(BIGRAMl[48]), UEP1(SFR[1]), 

    USBStdFeatureReqHandler@pUEP	PTR unsigned char  size(2) Largest target is 1
		 -> UEP0(SFR[1]), 

    USBStdFeatureReqHandler@p	PTR struct __BDT size(2) Largest target is 48
		 -> BDT(BIGRAMl[48]), NULL(NULL[0]), 

    USBStdGetStatusHandler@p	PTR struct __BDT size(2) Largest target is 48
		 -> BDT(BIGRAMl[48]), NULL(NULL[0]), 

    pDst	PTR volatile unsigned char  size(2) Largest target is 8
		 -> CtrlTrfData(ABS[8]), NULL(NULL[0]), 

    USBConfigureEndpoint@handle	PTR volatile struct __BDT size(2) Largest target is 48
		 -> BDT(BIGRAMl[48]), 

    pBDTEntryEP0OutCurrent	PTR volatile struct __BDT size(2) Largest target is 48
		 -> BDT(BIGRAMl[48]), NULL(NULL[0]), 

    pBDTEntryEP0OutNext	PTR volatile struct __BDT size(2) Largest target is 48
		 -> BDT(BIGRAMl[48]), NULL(NULL[0]), 

    USBTransferOnePacket@data	PTR unsigned char  size(2) Largest target is 128
		 -> USB_InPacket(ABS[64]), USB_OutPacket(ABS[128]), 

    USBTransferOnePacket@handle	PTR volatile struct __BDT size(2) Largest target is 48
		 -> BDT(BIGRAMl[48]), NULL(NULL[0]), 

    USBEnableEndpoint@p	PTR unsigned char  size(2) Largest target is 1
		 -> UEP0(SFR[1]), 

    pBDTEntryOut	PTR volatile struct __BDT[3] size(2) Largest target is 48
		 -> BDT(BIGRAMl[48]), NULL(NULL[0]), 

    pBDTEntryIn	PTR volatile struct __BDT[3] size(2) Largest target is 48
		 -> BDT(BIGRAMl[48]), NULL(NULL[0]), 

    S1391$pFunc	PTR FTN()void  size(2) Largest target is 0

    outPipes.pFunc	PTR FTN()void  size(2) Largest target is 0

    S1381$wRam	PTR unsigned int  size(2) Largest target is 0

    outPipes.pDst.wRam	PTR unsigned int  size(2) Largest target is 0

    S1381$bRam	PTR unsigned char  size(2) Largest target is 0

    outPipes.pDst.bRam	PTR unsigned char  size(2) Largest target is 0

    sp__memset	PTR void  size(2) Largest target is 48
		 -> USBAlternateInterface(COMRAM[1]), BDT(BIGRAMl[48]), UEP1(SFR[1]), 

    sp__USBTransferOnePacket	PTR void  size(2) Largest target is 48
		 -> BDT(BIGRAMl[48]), NULL(NULL[0]), 

    TXFIFO_Read@ptr	PTR unsigned char  size(2) Largest target is 64
		 -> USB_InPacket(ABS[64]), 

    S825$wRom	PTR const unsigned int  size(2) Largest target is 0

    inPipes.pSrc.wRom	PTR const unsigned int  size(2) Largest target is 0

    S825$wRam	PTR unsigned int  size(2) Largest target is 0

    inPipes.pSrc.wRam	PTR unsigned int  size(2) Largest target is 0

    S825$bRom	PTR const unsigned char  size(2) Largest target is 0

    inPipes.pSrc.bRom	PTR const unsigned char  size(2) Largest target is 0

    S825$bRam	PTR unsigned char  size(2) Largest target is 0

    inPipes.pSrc.bRam	PTR unsigned char  size(2) Largest target is 0

    USB_InHandle0	PTR void  size(2) Largest target is 48
		 -> BDT(BIGRAMl[48]), NULL(NULL[0]), 

    USB_OutHandle1	PTR void  size(2) Largest target is 48
		 -> BDT(BIGRAMl[48]), NULL(NULL[0]), 

    USB_OutHandle0	PTR void  size(2) Largest target is 48
		 -> BDT(BIGRAMl[48]), NULL(NULL[0]), 

    USB_SD_Ptr	const PTR const unsigned char [4] size(2) Largest target is 24
		 -> sd003(CODE[18]), sd002(CODE[24]), sd001(CODE[14]), sd000(CODE[4]), 

    USB_CD_Ptr	const PTR const unsigned char [1] size(2) Largest target is 32
		 -> configDescriptor1(CODE[32]), 


Critical Paths under _main in COMRAM

    _USBDeviceInit->_memset
    _Main_Task_Blaster->_TXFIFO_Read
    _JTAG_SPI_Put->_bitrev
    _JTAG_SPI_Get->_bitrev
    _EEPROM_Checksum->_EEPROM_Read

Critical Paths under _SYS_InterruptHigh in COMRAM

    _SYS_InterruptHigh->_USBDeviceTasks
    _USBDeviceTasks->_USBCtrlEPService
    i2_USBDeviceInit->i2_memset
    _USBWakeFromSuspend->_USER_USB_CALLBACK_EVENT_HANDLER
    _USBSuspend->_USER_USB_CALLBACK_EVENT_HANDLER
    _USBCtrlEPAllowDataStage->_USBCtrlTrfTxService
    _USBCheckStdRequest->_USBStdFeatureReqHandler
    _USBStdSetCfgHandler->_USER_USB_CALLBACK_EVENT_HANDLER
    _USBStdFeatureReqHandler->_USER_USB_CALLBACK_EVENT_HANDLER
    _USB_FT245_Emulation->i2_EEPROM_Read
    _USB_Ept_Init->_USBEnableEndpoint
    _USBEnableEndpoint->_USBConfigureEndpoint
    _USBCtrlTrfOutHandler->_USBCtrlTrfRxService
    _USBCtrlTrfInHandler->_USBCtrlTrfTxService

Critical Paths under _main in BANK0

    _main->_Main_Task_Blaster
    _USBDeviceInit->_memset
    _Main_Task_Blaster->_USBTransferOnePacket
    _Blaster_Init->_EEPROM_Checksum
    _EEPROM_Checksum->_EEPROM_Read

Critical Paths under _SYS_InterruptHigh in BANK0

    None.

Critical Paths under _main in BANK1

    None.

Critical Paths under _SYS_InterruptHigh in BANK1

    None.

Call Graph Tables:

 ---------------------------------------------------------------------------------
 (Depth) Function   	        Calls       Base Space   Used Autos Params    Refs
 ---------------------------------------------------------------------------------
 (0) _main                                                 0     0      0    4014
                       _Blaster_Init
                  _Main_Task_Blaster
                         _Timer_Init
                    _USBDeviceAttach
                      _USBDeviceInit
 ---------------------------------------------------------------------------------
 (1) _USBDeviceInit                                        1     1      0    1132
                                              2 BANK0      1     1      0
                             _memset
 ---------------------------------------------------------------------------------
 (2) _memset                                               8     2      6     930
                                             44 COMRAM     6     0      6
                                              0 BANK0      2     2      0
 ---------------------------------------------------------------------------------
 (1) _USBDeviceAttach                                      0     0      0       0
 ---------------------------------------------------------------------------------
 (1) _Timer_Init                                           0     0      0       0
 ---------------------------------------------------------------------------------
 (1) _Main_Task_Blaster                                   14    14      0    2432
                                              3 BANK0     14    14      0
                     _JTAG_Mode_PORT
                      _JTAG_Mode_SPI
                       _JTAG_SPI_Get
                       _JTAG_SPI_Put
                      _JTAG_SPI_Wait
                  _TIMER0_Reach_10ms
                  _TIMER0_Start_10ms
                        _TXFIFO_Fill
                        _TXFIFO_Read
                        _TXFIFO_Room
                       _TXFIFO_Write
               _USBTransferOnePacket
 ---------------------------------------------------------------------------------
 (2) _USBTransferOnePacket                                 7     3      4    1667
                                             44 COMRAM     4     0      4
                                              0 BANK0      3     3      0
 ---------------------------------------------------------------------------------
 (2) _TXFIFO_Write                                         1     1      0      22
                                             44 COMRAM     1     1      0
 ---------------------------------------------------------------------------------
 (2) _TXFIFO_Room                                          4     2      2       0
                                             44 COMRAM     4     2      2
 ---------------------------------------------------------------------------------
 (2) _TXFIFO_Read                                          5     2      3     246
                                             44 COMRAM     5     2      3
 ---------------------------------------------------------------------------------
 (2) _TXFIFO_Fill                                          2     0      2       0
                                             44 COMRAM     2     0      2
 ---------------------------------------------------------------------------------
 (2) _TIMER0_Reach_10ms                                    1     1      0      23
                                             44 COMRAM     1     1      0
 ---------------------------------------------------------------------------------
 (2) _JTAG_SPI_Wait                                        0     0      0       0
 ---------------------------------------------------------------------------------
 (2) _JTAG_SPI_Put                                         1     1      0      44
                                             45 COMRAM     1     1      0
                             _bitrev
 ---------------------------------------------------------------------------------
 (2) _JTAG_SPI_Get                                         0     0      0      22
                             _bitrev
 ---------------------------------------------------------------------------------
 (3) _bitrev                                               1     1      0      22
                                             44 COMRAM     1     1      0
 ---------------------------------------------------------------------------------
 (2) _JTAG_Mode_SPI                                        0     0      0       0
 ---------------------------------------------------------------------------------
 (2) _JTAG_Mode_PORT                                       0     0      0       0
 ---------------------------------------------------------------------------------
 (1) _Blaster_Init                                         0     0      0     450
                    _EEPROM_Checksum
                          _JTAG_Init
                  _TIMER0_Start_10ms
 ---------------------------------------------------------------------------------
 (2) _TIMER0_Start_10ms                                    0     0      0       0
 ---------------------------------------------------------------------------------
 (2) _JTAG_Init                                            0     0      0       0
 ---------------------------------------------------------------------------------
 (2) _EEPROM_Checksum                                      8     8      0     450
                                              2 BANK0      8     8      0
                        _EEPROM_Read
 ---------------------------------------------------------------------------------
 (3) _EEPROM_Read                                          8     8      0     269
                                             44 COMRAM     6     6      0
                                              0 BANK0      2     2      0
 ---------------------------------------------------------------------------------
 Estimated maximum stack depth 3
 ---------------------------------------------------------------------------------
 (Depth) Function   	        Calls       Base Space   Used Autos Params    Refs
 ---------------------------------------------------------------------------------
 (4) _SYS_InterruptHigh                                   14    14      0   28145
                                             30 COMRAM    14    14      0
                     _USBDeviceTasks
 ---------------------------------------------------------------------------------
 (5) _USBDeviceTasks                                       1     1      0   28145
                                             29 COMRAM     1     1      0
          _USBCtrlEPAllowStatusStage
                   _USBCtrlEPService
                    _USBStallHandler
                         _USBSuspend
                 _USBWakeFromSuspend
    _USER_USB_CALLBACK_EVENT_HANDLER
                    i2_USBDeviceInit
 ---------------------------------------------------------------------------------
 (6) i2_USBDeviceInit                                      1     1      0     610
                                              8 COMRAM     1     1      0
                           i2_memset
 ---------------------------------------------------------------------------------
 (6) _USBWakeFromSuspend                                   0     0      0    3739
    _USER_USB_CALLBACK_EVENT_HANDLER
 ---------------------------------------------------------------------------------
 (6) _USBSuspend                                           0     0      0    3739
    _USER_USB_CALLBACK_EVENT_HANDLER
 ---------------------------------------------------------------------------------
 (6) _USBStallHandler                                      1     1      0       0
                                              0 COMRAM     1     1      0
 ---------------------------------------------------------------------------------
 (6) _USBCtrlEPService                                     3     3      0   16272
                                             26 COMRAM     3     3      0
                _USBCtrlTrfInHandler
               _USBCtrlTrfOutHandler
             _USBCtrlTrfSetupHandler
 ---------------------------------------------------------------------------------
 (7) _USBCtrlTrfSetupHandler                               0     0      0   15975
                 _USBCheckStdRequest
           _USBCtrlEPServiceComplete
    _USER_USB_CALLBACK_EVENT_HANDLER
 ---------------------------------------------------------------------------------
 (8) _USBCtrlEPServiceComplete                             0     0      0      92
            _USBCtrlEPAllowDataStage
          _USBCtrlEPAllowStatusStage
 ---------------------------------------------------------------------------------
 (9) _USBCtrlEPAllowDataStage                              0     0      0      92
                _USBCtrlTrfTxService
 ---------------------------------------------------------------------------------
 (8) _USBCheckStdRequest                                   0     0      0   12144
            _USBStdFeatureReqHandler
                _USBStdGetDscHandler
             _USBStdGetStatusHandler
                _USBStdSetCfgHandler
    _USER_USB_CALLBACK_EVENT_HANDLER
 ---------------------------------------------------------------------------------
 (9) _USBStdSetCfgHandler                                  1     1      0    4237
                                             20 COMRAM     1     1      0
    _USER_USB_CALLBACK_EVENT_HANDLER
                           i2_memset
 ---------------------------------------------------------------------------------
 (7) i2_memset                                             8     2      6     408
                                              0 COMRAM     8     2      6
 ---------------------------------------------------------------------------------
 (9) _USBStdGetStatusHandler                               3     3      0      46
                                              0 COMRAM     3     3      0
 ---------------------------------------------------------------------------------
 (9) _USBStdGetDscHandler                                  2     2      0       0
                                              0 COMRAM     2     2      0
 ---------------------------------------------------------------------------------
 (9) _USBStdFeatureReqHandler                              6     6      0    4122
                                             20 COMRAM     6     6      0
    _USER_USB_CALLBACK_EVENT_HANDLER
 ---------------------------------------------------------------------------------
 (6) _USER_USB_CALLBACK_EVENT_HANDLER                      8     2      6    3739
                                             12 COMRAM     8     2      6
              _USBCheckVendorRequest
                       _USB_Ept_Init
                _USB_FT245_Emulation
 ---------------------------------------------------------------------------------
 (7) _USB_FT245_Emulation                                  1     1      0     314
                                              8 COMRAM     1     1      0
                      i2_EEPROM_Read
 ---------------------------------------------------------------------------------
 (8) i2_EEPROM_Read                                        8     8      0     269
                                              0 COMRAM     8     8      0
 ---------------------------------------------------------------------------------
 (7) _USB_Ept_Init                                         0     0      0     733
                        _TXFIFO_Init
                  _USBEnableEndpoint
                   i2_JTAG_Mode_PORT
 ---------------------------------------------------------------------------------
 (8) i2_JTAG_Mode_PORT                                     0     0      0       0
 ---------------------------------------------------------------------------------
 (8) _USBEnableEndpoint                                    4     3      1     733
                                              8 COMRAM     4     3      1
               _USBConfigureEndpoint
 ---------------------------------------------------------------------------------
 (9) _USBConfigureEndpoint                                 8     7      1     400
                                              0 COMRAM     8     7      1
 ---------------------------------------------------------------------------------
 (8) _TXFIFO_Init                                          0     0      0       0
 ---------------------------------------------------------------------------------
 (7) _USBCheckVendorRequest                                0     0      0       0
 ---------------------------------------------------------------------------------
 (7) _USBCtrlTrfOutHandler                                 0     0      0     114
                _USBCtrlTrfRxService
 ---------------------------------------------------------------------------------
 (8) _USBCtrlTrfRxService                                  2     2      0     114
                                              0 COMRAM     2     2      0
          _USBCtrlEPAllowStatusStage
 ---------------------------------------------------------------------------------
 (9) _USBCtrlEPAllowStatusStage                            0     0      0       0
 ---------------------------------------------------------------------------------
 (7) _USBCtrlTrfInHandler                                  1     1      0     115
                                              1 COMRAM     1     1      0
                _USBCtrlTrfTxService
 ---------------------------------------------------------------------------------
 (10) _USBCtrlTrfTxService                                 1     1      0      92
                                              0 COMRAM     1     1      0
 ---------------------------------------------------------------------------------
 Estimated maximum stack depth 10
 ---------------------------------------------------------------------------------

 Call Graph Graphs:

 _main (ROOT)
   _Blaster_Init
     _EEPROM_Checksum
       _EEPROM_Read
     _JTAG_Init
     _TIMER0_Start_10ms
   _Main_Task_Blaster
     _JTAG_Mode_PORT
     _JTAG_Mode_SPI
     _JTAG_SPI_Get
       _bitrev
     _JTAG_SPI_Put
       _bitrev
     _JTAG_SPI_Wait
     _TIMER0_Reach_10ms
     _TIMER0_Start_10ms
     _TXFIFO_Fill
     _TXFIFO_Read
     _TXFIFO_Room
     _TXFIFO_Write
     _USBTransferOnePacket
   _Timer_Init
   _USBDeviceAttach
   _USBDeviceInit
     _memset

 _SYS_InterruptHigh (ROOT)
   _USBDeviceTasks
     _USBCtrlEPAllowStatusStage
     _USBCtrlEPService
       _USBCtrlTrfInHandler
         _USBCtrlTrfTxService
       _USBCtrlTrfOutHandler
         _USBCtrlTrfRxService
           _USBCtrlEPAllowStatusStage
       _USBCtrlTrfSetupHandler
         _USBCheckStdRequest
           _USBStdFeatureReqHandler
             _USER_USB_CALLBACK_EVENT_HANDLER
               _USBCheckVendorRequest
               _USB_Ept_Init
                 _TXFIFO_Init
                 _USBEnableEndpoint
                   _USBConfigureEndpoint
                 i2_JTAG_Mode_PORT
               _USB_FT245_Emulation
                 i2_EEPROM_Read
           _USBStdGetDscHandler
           _USBStdGetStatusHandler
           _USBStdSetCfgHandler
             _USER_USB_CALLBACK_EVENT_HANDLER
               _USBCheckVendorRequest
               _USB_Ept_Init
                 _TXFIFO_Init
                 _USBEnableEndpoint
                   _USBConfigureEndpoint
                 i2_JTAG_Mode_PORT
               _USB_FT245_Emulation
                 i2_EEPROM_Read
             i2_memset
           _USER_USB_CALLBACK_EVENT_HANDLER
             _USBCheckVendorRequest
             _USB_Ept_Init
               _TXFIFO_Init
               _USBEnableEndpoint
                 _USBConfigureEndpoint
               i2_JTAG_Mode_PORT
             _USB_FT245_Emulation
               i2_EEPROM_Read
         _USBCtrlEPServiceComplete
           _USBCtrlEPAllowDataStage
             _USBCtrlTrfTxService
           _USBCtrlEPAllowStatusStage
         _USER_USB_CALLBACK_EVENT_HANDLER
           _USBCheckVendorRequest
           _USB_Ept_Init
             _TXFIFO_Init
             _USBEnableEndpoint
               _USBConfigureEndpoint
             i2_JTAG_Mode_PORT
           _USB_FT245_Emulation
             i2_EEPROM_Read
     _USBStallHandler
     _USBSuspend
       _USER_USB_CALLBACK_EVENT_HANDLER
         _USBCheckVendorRequest
         _USB_Ept_Init
           _TXFIFO_Init
           _USBEnableEndpoint
             _USBConfigureEndpoint
           i2_JTAG_Mode_PORT
         _USB_FT245_Emulation
           i2_EEPROM_Read
     _USBWakeFromSuspend
       _USER_USB_CALLBACK_EVENT_HANDLER
         _USBCheckVendorRequest
         _USB_Ept_Init
           _TXFIFO_Init
           _USBEnableEndpoint
             _USBConfigureEndpoint
           i2_JTAG_Mode_PORT
         _USB_FT245_Emulation
           i2_EEPROM_Read
     _USER_USB_CALLBACK_EVENT_HANDLER
       _USBCheckVendorRequest
       _USB_Ept_Init
         _TXFIFO_Init
         _USBEnableEndpoint
           _USBConfigureEndpoint
         i2_JTAG_Mode_PORT
       _USB_FT245_Emulation
         i2_EEPROM_Read
     i2_USBDeviceInit
       i2_memset

 Address spaces:
Name               Size   Autos  Total    Cost      Usage
BIGRAMl            1FF      0       0       8        0.0%
EEDATA             100      0       0       0        0.0%
BITBANK1           100      0       0       7        0.0%
BANK1              100      0     100       5      100.0%
BITBANK0            A0      0       0       3        0.0%
BANK0               A0     11      3C       4       37.5%
BITCOMRAM           5E      0       0       0        0.0%
COMRAM              5E     32      51       1       86.2%
BITSFR_1             0      0       0      40        0.0%
SFR_1                0      0       0      40        0.0%
BITSFR               0      0       0      40        0.0%
SFR                  0      0       0      40        0.0%
STACK                0      0       0       2        0.0%
NULL                 0      0       0       0        0.0%
ABS                  0      0     18D       6        0.0%
DATA                 0      0     18D       9        0.0%
CODE                 0      0       0       0        0.0%


Microchip Technology PIC18 Macro Assembler V1.38 build -256452561 
Symbol Table                                                                                   Sat May 26 01:25:47 2018

                             _TXFIFO_ocpy 0039                                _USB_SD_Ptr 3F87  
                             _SSPSTATbits 000FC7                                        l24 2214  
                                      l99 22FA                    ?_USBCheckVendorRequest 0001  
                           _USBDeviceInit 0E9C                       ??_TIMER0_Start_10ms 002D  
                            __CFG_CP0$OFF 000000                              __CFG_CP1$OFF 000000  
                             __CFG_LVP$ON 000000      USER_USB_CALLBACK_EVENT_HANDLER@event 000D  
    USER_USB_CALLBACK_EVENT_HANDLER@pdata 000F                                       l325 04A0  
             __end_of_USBStdGetDscHandler 1388                                       l238 05FC  
                                     l327 04A8                                       l528 2118  
                                     l529 2116                                       l467 0F08  
                                     _BDT 000200                              __CFG_CPB$OFF 000000  
                                     _PR2 000FCB                                       _REV 3E87  
                                     _UIE 000F60                                       _UIR 000F62  
                                     _nCS 0088                                _USBSuspend 21AC  
                            __CFG_BORV$30 000000                      USBStdSetCfgHandler@i 0015  
                    __end_of_Blaster_Init 22D4                                       prod 000FF3  
                                     wreg 000FE8                            _USBDeviceTasks 1132  
                            __CFG_FOSC$HS 000000                           TXFIFO_Read@size 002F  
                          _USBDeviceState 0086              Main_Task_Blaster@txfifo_size 0098  
                   ??_USBCtrlTrfRxService 0001                  __size_ofi2_USBDeviceInit 0140  
                USBEnableEndpoint@options 0009                  __size_of_EEPROM_Checksum 00BE  
                            _USB_InPacket 000240                                      l4000 034E  
                                    l4002 035A                                      l4022 03EE  
                                    l4024 03F4                                      l4008 0388  
                                    l4032 040E                                      l4040 041E  
                                    l4042 0430                                      l3420 0536  
                                    l4036 0416                                      l4028 03FC  
              USBConfigureEndpoint@handle 0007                                      l3430 055C  
                                    l3422 053A                                      l4046 0462  
                                    l3432 0564                                      l3424 0544  
                                    l4048 046C                                      l3450 05B6  
                                    l3442 0588                                      l3434 056C  
                                    l3426 054C                                      l4066 04F0  
                                    l3452 05CA                                      l3444 0590  
                                    l3436 057C                                      l3428 0554  
                                    l3454 05D2                                      l3446 05AA  
                                    l3438 0584                                      l3472 06EE  
                                    l3456 05F2                                      l3448 05AE  
                                    l3464 0608                                      l3624 2006  
                                    l3632 202A                                      l4184 220A  
                                    l3458 0602                                      l3466 0692  
                                    l3484 08AA                                      l3660 186A  
                                    l3652 183A                                      l3478 07A0  
                                    l3672 18CC                                      l3680 212E  
                                    l3930 00F6                                      l3922 00B0  
                                    l3850 0EE8                                      l3596 1B5C  
                                    l3916 0088                                      l3684 2140  
                                    l3950 018E                                      l3942 0148  
                                    l3862 0F16                                      l3870 0F2C  
                                    l3846 0EDE                                      l3928 00EC  
                                    l3962 01E0                                      l3874 0F4A  
                                    l3948 0184                                      l3884 0FBA  
                                    l3974 022E                                      l3966 01E8  
                                    l3878 0F54                                      l3992 0290  
                                    l3968 0200                                      u3000 00DC  
                                    u3110 02C4                                      u3200 0346  
                                    u3040 0174                                      u3008 00E0  
                                    u3130 02EA                                      u3300 0452  
                                    u3108 02A2                                      u3206 0348  
                                    u3150 030E                                      u3128 02C8  
                                    u3048 0178                                      u3170 032E  
                                    u3090 029E                                      u3308 0456  
                                    u3180 0330                                      u3148 02EE  
                                    u3168 0312                                      u2705 1BC2  
                   ??_USBCtrlTrfTxService 0001                                      _UCFG 000F61  
                                    _UEP0 000F53                                      _UEP1 000F54  
                                    _UEIE 000F5B                                      _UCON 000F64  
                                    _UEIR 000F5F                                      _TMR2 000FCC  
                                    _Read 0082                 __size_ofi2_JTAG_Mode_PORT 0004  
               __end_of_TIMER0_Start_10ms 22A6                              _USB_Ept_Init 1F90  
  USBStdFeatureReqHandler@current_ep_data 0018                                      _pDst 003F  
                                    _main 21FA                                      fsr0h 000FEA  
                                    fsr1h 000FE2                                      fsr0l 000FE9  
                                    fsr2h 000FDA                                      indf1 000FE7  
                                    fsr1l 000FE1                                      indf2 000FDF  
                                    fsr2l 000FD9                           _USBDeviceAttach 20EE  
                                    btemp 0052                __size_of_Main_Task_Blaster 04A4  
                                    pclat 000FFA                                      prodh 000FF4  
                                    prodl 000FF3                                      start 0082  
                           __CFG_IESO$OFF 000000                __end_of_USBCheckStdRequest 1752  
                  ??_USBCtrlTrfOutHandler 0003                              ___param_bank 000010  
               ??_USBStdFeatureReqHandler 0015                        __size_of_JTAG_Init 0026  
                  __size_of_JTAG_SPI_Wait 0006                  ??_USBStdGetStatusHandler 0001  
                           _USB_InHandle0 007A                            ?_USBDeviceInit 0001  
                           __CFG_PLLEN$ON 000000                                     ?_main 0001  
       __size_of_USBCtrlEPServiceComplete 00F2                                     _ANSEL 000F7E  
                                   _T0CON 000FD5                    __end_of_USBDeviceTasks 1268  
              __size_of_TIMER0_Reach_10ms 000E                                     _T2CON 000FCA  
               ?_USBCtrlEPServiceComplete 0001                                     i2l238 097C  
                                   i2l620 1C1C                                     i2l621 1C20  
                                   i2l616 1C0E                                     i2l553 1518  
                                   i2l714 0E08                                     i2l490 1264  
                                   i2l619 1C96                                     i2l467 1056  
                                   i2l491 11FE                                     i2l629 2074  
                                   i2l479 115E                                     i2l680 1686  
                                   i2l489 11EE                                     i2l666 19A6  
                                   i2l695 0C42                                     i2l689 16D6  
                                   _UADDR 000F5C                            __CFG_BBSIZ$OFF 000000  
                                   _TMR0H 000FD7                                     _TMR0L 000FD6  
                                   _TRISB 000F93                                     _TRISC 000F94  
                                   _USTAT 000F63                             __CFG_WRT0$OFF 000000  
      __size_of_USBCtrlEPAllowStatusStage 00C4                             __CFG_WRT1$OFF 000000  
                          __CFG_EBTR0$OFF 000000                            __CFG_FCMEN$OFF 000000  
                          __CFG_EBTR1$OFF 000000           __end_of_USBCtrlEPAllowDataStage 1D44  
                                   _RxPtr 0083                                     _sd000 3FFB  
                                   _sd001 3FED                                     _sd002 3FB1  
                                   _sd003 3FDB                             __CFG_WRTB$OFF 000000  
                           __CFG_WRTC$OFF 000000                            __CFG_EBTRB$OFF 000000  
                              i2memset@p1 0001                    __size_of_JTAG_Mode_SPI 0008  
                          __CFG_BOREN$OFF 000000                                     tablat 000FF5  
                           ?_JTAG_SPI_Get 0001                                     plusw2 000FDB  
                           ?_JTAG_SPI_Put 0001                                     status 000FD8  
                        __end_ofi2_memset 21AC                      __size_of_EEPROM_Read 0386  
            __size_of_USBStdSetCfgHandler 00E4                            __CFG_MCLRE$OFF 000000  
                         __initialization 20B4                   Main_Task_Blaster@opcode 0099  
                            __end_of_main 221E                   Main_Task_Blaster@txsize 0097  
               __size_of_USBCtrlEPService 00CE                             _USB_OutPacket 000280  
                                  ??_main 0033                             __activetblptr 000002  
                         ?_USBDeviceTasks 0001                    __size_ofi2_EEPROM_Read 036A  
                             ?_USBSuspend 0001                         __end_of_JTAG_Init 21FA  
                           _JTAG_SPI_Wait 22FA                   __end_of_USBDeviceAttach 2124  
                                  _CCPR1L 000FBE                                    _ANSELH 000F7F  
                          ??_JTAG_SPI_Get 002E                                    i2l3000 19D4  
                                  i2l3004 19DE                                    i2l3014 1A06  
                                  i2l3022 1A3A                                    i2l3110 15DA  
                                  i2l3024 1A42                                    i2l3032 1A76  
                                  i2l3040 219A                                    i2l3106 15D2  
                                  i2l3220 0CB8                                    i2l3140 1278  
                                  i2l3036 218A                                    i2l3132 1652  
                                  i2l3116 1606                                    i2l3206 0C3E  
                                  i2l3056 1AC6                                    i2l3232 0D1A  
                                  i2l3160 1364                                    i2l3152 130E  
                                  i2l3144 128A                                    i2l3312 153E  
                                  i2l4120 11A2                                    i2l3242 0D6C  
                                  i2l3226 0CFC                                    i2l3162 136A  
                                  i2l3154 1314                                    i2l3410 170E  
                                  i2l3090 1D10                                    i2l4130 11B2  
                                  i2l4114 117E                                    i2l4106 1172  
                                  i2l3340 13B8                                    i2l3260 0DF4  
                                  i2l3244 0D88                                    i2l3228 0CFE  
                                  i2l3166 1370                                    i2l3406 16F0  
                                  i2l3086 1CF8                                    i2l4150 11F6  
                          __CFG_WDTEN$OFF 000000                                    i2l3248 0DA2  
                                  i2l4144 11E2                                    i2l4136 11BC  
                                  i2l3362 1454                                    i2l3346 13DC  
                                  i2l3274 0E6A                                    i2l3258 0DE8  
                                  i2l3178 1C3E                                    i2l4170 1244  
                                  i2l3540 1924                                    i2l3276 0E76  
                                  i2l3268 0E24                                    i2l3188 1C7E  
                                  i2l3380 1690                                    i2l3292 14C2  
                                  i2l4172 1260                                    i2l4164 1224  
                                  i2l4092 1156                                    i2l4084 114A  
                          ??_JTAG_SPI_Put 002E                                    i2l3542 192A  
                                  i2l3358 143A                                    i2l3526 1F8A  
                                  i2l3518 1F42                                    i2l2910 0A66  
                                  i2l2902 0988                                    i2l3382 1696  
                                  i2l3560 198C                                    i2l2832 1DA6  
                                  i2l2904 0A10                                    i2l4264 1EFE  
                                  i2l3392 16AE                                    i2l3384 169C  
                                  i2l3554 196C                                    i2l2922 0C16  
                                  i2l4266 1F2E                                    i2l3394 16B4  
                                  i2l3802 109E                                    i2l2844 2088  
                                  i2l2916 0B12                                    i2l2860 08BC  
                                  i2l3396 16BA                                    i2l3566 19B0  
                                  i2l2870 08E6                                    i2l2862 08C6  
                                  i2l3734 17A2                                    i2l3750 180A  
                                  i2l3718 2070                                    i2l2848 2096  
                                  i2l2880 090A                                    i2l2872 08EE  
                                  i2l2864 08CE                                    i2l3752 1810  
                                  i2l3808 10FA                                    i2l2890 094A  
                                  i2l2882 0912                                    i2l2874 08FE  
                                  i2l2866 08D6                                    i2l2858 08B8  
                                  i2l2962 1EB2                                    i2l2954 1E8C  
                                  i2l3746 17F0                                    i2l3738 17AA  
                                  i2l3770 1032                                    i2l2892 0952  
                                  i2l2884 092C                                    i2l2876 0906  
                                  i2l2868 08DE                                    i2l2964 1EBE  
                                  i2l2972 1ED6                                    i2l2980 1EE6  
                                  i2l2894 0972                                    i2l2886 0930  
                                  i2l2974 1EDC                                    i2l3694 2178  
                                  i2l3774 103A                                    i2l2896 0982  
                                  i2l2888 0938                                    i2l3696 217A  
                                  i2l3786 1064                                    i2l3794 107A  
                                  i2l3798 1096                __size_of_TIMER0_Start_10ms 0016  
                                  _SLRCON 000F76                                    _SSPBUF 000FC9  
                                  _TXFIFO 0100                         ??i2_USBDeviceInit 0009  
                       ??_EEPROM_Checksum 008B                       Main_Task_Blaster@tx 0096  
                       _shortPacketStatus 004E                            __CFG_XINST$OFF 000000  
                        TXFIFO_Write@data 002D                                    _RxSize 0084  
                         USBDeviceTasks@i 001E               USBStdFeatureReqHandler@pUEP 0016  
                USBTransferOnePacket@data 002E                USBCtrlTrfInHandler@lastDTS 0002  
                         ??_USBDeviceInit 0033                             _JTAG_Mode_SPI 22F2  
                          __CFG_STVREN$ON 000000              __size_of_USB_FT245_Emulation 0072  
                                  _bitrev 2278                                _Timer_Init 221E  
                       _USBEnableEndpoint 2078           __size_of_USBStdGetStatusHandler 00AA  
                                  _memset 2124                   __size_of_JTAG_Mode_PORT 0004  
                                  clear_0 20BC                                    clear_1 20CE  
                                  clear_2 20DA                     __size_of_Blaster_Init 000E  
                      ?_USBEnableEndpoint 0009             __size_of_USBTransferOnePacket 00CC  
                            __mediumconst 3E86                                    tblptrh 000FF7  
                                  tblptrl 000FF6                                    tblptru 000FF8  
                          ?_JTAG_SPI_Wait 0001                       ??_USBEnableEndpoint 000A  
                             _CtrlTrfData 000238                           __CFG_HFOFST$OFF 000000  
                    _controlTransferState 004C                          i2_JTAG_Mode_PORT 2304  
                              __accesstop 0060                   __end_of__initialization 20E0  
                           ___rparam_used 000001                             i2_EEPROM_Read 08B0  
                __size_of_USBStallHandler 0046                              ?_TXFIFO_Fill 002D  
                            ?_TXFIFO_Init 0001                              ?_TXFIFO_Read 002D  
                            _Blaster_Init 22C6                       __size_of_USBSuspend 0028  
                            ?_TXFIFO_Room 002D                   ??_USBCheckVendorRequest 0001  
                          __pcstackCOMRAM 0001                            ?_JTAG_Mode_SPI 0001  
               __end_of_USBEnableEndpoint 20B4                             __end_of_sd000 3FFF  
                           __end_of_sd001 3FFB                             __end_of_sd002 3FC9  
                           __end_of_sd003 3FED          __size_of_USBCtrlEPAllowDataStage 009A  
           __size_of_USBConfigureEndpoint 0094               __end_of_USBCtrlTrfInHandler 19B6  
                          _USB_OutHandle0 007C                            _USB_OutHandle1 007E  
                               ?i2_memset 0001                  ??_USBCtrlTrfSetupHandler 001B  
                        ?_USBDeviceAttach 0001                    _USBStdGetStatusHandler 1C00  
                              __pbssBANK0 0060                                __pbssBANK1 0100  
                          ?i2_EEPROM_Read 0001               __size_of_USBWakeFromSuspend 002E  
                             _pBDTEntryIn 0068          __end_of_USBCtrlEPServiceComplete 1592  
                    USBCtrlTrfRxService@i 0001                               ?_Timer_Init 0001  
                                 ?_bitrev 0001                                   _CCP1CON 000FBD  
                                 ?_memset 002D                                _device_dsc 3FC9  
                    __end_of_JTAG_SPI_Get 22F2                          _USBCtrlEPService 1752  
                    __end_of_JTAG_SPI_Put 22E0                                _ep_data_in 0074  
             __end_of_USBCtrlTrfRxService 14A0                        _USBCheckStdRequest 1676  
                       _configDescriptor1 3F91                           ??_JTAG_SPI_Wait 002D  
                              ??i2_memset 0007               __end_of_USBCtrlTrfTxService 1A7E  
                     _USBStdSetCfgHandler 1592                                   _PSTRCON 000FB9  
                                 _SSPCON1 000FC6                           __CFG_USBDIV$OFF 000000  
                     ?_USBCheckStdRequest 0001              __size_of_USBStdGetDscHandler 0120  
                                 _UIEbits 000F60                                   _SSPSTAT 000FC7  
                                 _UIRbits 000F62                           __CFG_PWRTEN$OFF 000000  
                         ??_JTAG_Mode_SPI 002D                                   __Hparam 0000  
                    ?_USBStdSetCfgHandler 0001                                   __Lparam 0000  
              __size_of_USBEnableEndpoint 003C                      ??_USBCheckStdRequest 001B  
           __size_of_USBCtrlTrfOutHandler 005C                          ??_USBDeviceTasks 001E  
                       ??_USBStallHandler 0001                            _JTAG_Mode_PORT 2300  
                         __size_of_bitrev 0018                                   __pcinit 20B4  
                         __size_of_memset 002E                 __end_of_configDescriptor1 3FB1  
                                 __ramtop 0300                                   __ptext0 21FA  
                                 __ptext1 0E9C                                   __ptext2 2124  
                                 __ptext3 20EE                                   __ptext4 221E  
                                 __ptext5 0086                                   __ptext6 1820  
                                 __ptext7 223C                                   __ptext8 225A  
                                 __ptext9 1FEA                                   _inPipes 0033  
             _USBDeferOUTDataStagePackets 0047                              ??_USBSuspend 0015  
                         i2_USBDeviceInit 0FF2                          i2USBDeviceInit@i 0009  
                         _EEPROM_Checksum 1B42                        __end_of_USB_CD_Ptr 3F91  
         __size_of_USBCtrlTrfSetupHandler 008A                       _USB_FT245_Emulation 1E62  
                    end_of_initialization 20E0                        __end_of_USB_SD_Ptr 3F8F  
                         ??i2_EEPROM_Read 0001                       __size_of_Timer_Init 001E  
                               _JTAG_Init 21D4                       _pBDTEntryEP0OutNext 003D  
                           ??_EEPROM_Read 002D                                   memset@c 002F  
                                 memset@n 0031                                   memset@p 0089  
                           __Lmediumconst 3E86                  ?_USBStdFeatureReqHandler 0001  
                   ??_USBStdSetCfgHandler 0015                        __end_of_USBSuspend 21D4  
                 _USBCtrlEPAllowDataStage 1CAA                    __end_of_JTAG_Mode_PORT 2304  
                                 postdec1 000FE5                                   postdec2 000FDD  
                                 postinc0 000FEE                                   postinc2 000FDE  
                    __size_of_TXFIFO_Fill 000A                      __size_of_TXFIFO_Init 0012  
                    __size_of_TXFIFO_Read 0048                      ?_USB_FT245_Emulation 0001  
                    __size_of_TXFIFO_Room 001E                  _USBCtrlEPServiceComplete 14A0  
              _USBStatusStageEnabledFlag1 0049                _USBStatusStageEnabledFlag2 004A  
                __end_ofi2_JTAG_Mode_PORT 2308                        USBEnableEndpoint@p 000A  
                               _PORTBbits 000F81                                bitrev@byte 002D  
                               _TRISBbits 000F93                                 _TXFIFO_rp 0043  
                               _TXFIFO_wp 0044                        _BothEP0OutUOWNsSet 0041  
               USBConfigureEndpoint@EPNum 0006                ?_USBCtrlEPAllowStatusStage 0001  
     USER_USB_CALLBACK_EVENT_HANDLER@size 0011                                 _USTATcopy 0051  
                          TXFIFO_Read@ptr 002D                                ?_JTAG_Init 0001  
            __end_of_USBTransferOnePacket 18EC                             ?_TXFIFO_Write 0001  
                   __size_of_JTAG_SPI_Get 0008                       __end_of_EEPROM_Read 08B0  
                   __size_of_JTAG_SPI_Put 000C                           ?_JTAG_Mode_PORT 0001  
                   ??_USB_FT245_Emulation 0009                    _USBCtrlTrfSetupHandler 1DD8  
          __size_of_USBCheckVendorRequest 0002             __end_of_USBCheckVendorRequest 230A  
                   __end_of_USBDeviceInit 0FF2                            __end_of_bitrev 2290  
                 __end_ofi2_USBDeviceInit 1132                                 i2memset@c 0003  
                               i2memset@n 0005                                 i2memset@p 0007  
                 __end_of_EEPROM_Checksum 1C00                            __end_of_memset 2152  
                       _USBBusIsSuspended 0045                       start_initialization 20B4  
                 ?_USBStdGetStatusHandler 0001             USBCtrlTrfRxService@byteToRead 0002  
                             __end_of_REV 3F87                           _eeprom_checksum 009A  
                       __size_ofi2_memset 002C              __end_of_USBConfigureEndpoint 1DD8  
         __end_of_USBStdFeatureReqHandler 0E9C         __end_of_USBCtrlEPAllowStatusStage 1B42  
                           ?_USB_Ept_Init 0001                  __end_of_USBCtrlEPService 1820  
                            _JTAG_SPI_Get 22EA                              _JTAG_SPI_Put 22D4  
               ??_USBCtrlEPAllowDataStage 0002                            ??_TXFIFO_Write 002D  
                          USBDeviceInit@i 008B                    _pBDTEntryEP0OutCurrent 003B  
                 USBTransferOnePacket@dir 002D                   USBTransferOnePacket@len 0030  
                     _USBStdGetDscHandler 1268                              ??_Timer_Init 002D  
                                ??_bitrev 002D                                  ??_memset 0033  
                  _Main_Task_Blaster$1301 0094                    _Main_Task_Blaster$1216 008E  
                  _Main_Task_Blaster$1250 0090                    _Main_Task_Blaster$1297 0092  
                  _USBActiveConfiguration 004F            __end_of_USBStdGetStatusHandler 1CAA  
                             __pbssCOMRAM 0033                             __pcstackBANK0 0089  
            __size_of_USBCtrlTrfInHandler 00CA                      ?_USBStdGetDscHandler 0001  
                          ??_USB_Ept_Init 000D                               ??_JTAG_Init 002D  
              __end_of_USBWakeFromSuspend 2180                        __end_of_Timer_Init 223C  
                             _EEPROM_Read 052A                           _USBStallHandler 2032  
                            _pBDTEntryOut 006E                                 __pnvBANK0 009A  
                __size_of_USBDeviceAttach 0036                         i2EEPROM_Read@addr 0008  
                       i2EEPROM_Read@data 0007                                 __pintcode 0008  
                           __pmediumconst 3E86                          ?i2_USBDeviceInit 0001  
                        ?_EEPROM_Checksum 0001                      _USBTransferOnePacket 1820  
                 USB_FT245_Emulation@addr 0009                     __end_of_JTAG_SPI_Wait 2300  
            __end_of_USBCtrlTrfOutHandler 1F90                     ??_USBStdGetDscHandler 0001  
                             _ep_data_out 0077              __size_of_USBCtrlTrfRxService 0118  
           USBConfigureEndpoint@direction 0001              __size_of_USBCtrlTrfTxService 00C8  
                                _LATBbits 000F8A                                  _LATCbits 000F8B  
              ??_USBCtrlEPServiceComplete 0002                                  _IPR2bits 000FA2  
                                _PIE2bits 000FA0                                  i2u200_40 1A6A  
                                i2u200_47 1A60                                  i2u214_40 12DC  
                                i2u214_47 12D2                                  i2u215_40 130A  
                                i2u215_47 1300                                  i2u217_40 135A  
                                i2u217_47 1350                                  _PIR2bits 000FA1  
                                i2u198_40 1A2E                                  i2u198_47 1A24  
               USBCtrlEPService@setup_cnt 001D                     __end_of_JTAG_Mode_SPI 22FA  
                                _RCONbits 000FD0                          __CFG_WDTPS$32768 000000  
                                _UEP0bits 000F53                _USBDeferINDataStagePackets 0046  
             __size_of_USBCheckStdRequest 00DC                                  _UCONbits 000F64  
                    _USBConfigureEndpoint 1D44          __size_of_USBStdFeatureReqHandler 0282  
                       ?i2_JTAG_Mode_PORT 0001                     ?_USBTransferOnePacket 002D  
                       _SYS_InterruptHigh 0008                        ??i2_JTAG_Mode_PORT 0001  
                            _RemoteWakeup 0042                                  i2_memset 2180  
                    __end_of_TXFIFO_Write 225A                        ?_SYS_InterruptHigh 0001  
                 __end_of_USBStallHandler 2078               ??_USBCtrlEPAllowStatusStage 0001  
             __end_of_USBStdSetCfgHandler 1676                                  _ByteSize 0080  
                     ??_SYS_InterruptHigh 001F                     __end_ofi2_EEPROM_Read 0C1A  
                      __end_of_device_dsc 3FDB                          ??_JTAG_Mode_PORT 002D  
                 ?_USBCtrlTrfSetupHandler 0001                             ??_TXFIFO_Fill 002F  
                                _ValidPPB 0087                   USBStdGetStatusHandler@p 0002  
                           ??_TXFIFO_Init 0001                             ??_TXFIFO_Read 0030  
                           ?_Blaster_Init 0001                                  __Hrparam 0000  
                           ??_TXFIFO_Room 002F                                  __Lrparam 0000  
                  USBTransferOnePacket@ep 0089                                  _Rx_State 0085  
                                _SetupPkt 000230                     ?_USBConfigureEndpoint 0001  
                       ??_USBDeviceAttach 002D                      __end_of_USB_Ept_Init 1FEA  
               __end_of_SYS_InterruptHigh 0082                   __size_of_USBDeviceTasks 0136  
                                __ptext10 22E0                                  __ptext11 22B8  
                                __ptext20 21D4                                  __ptext12 22FA  
                                __ptext21 1B42                                  __ptext13 22D4  
                                __ptext30 1DD8                                  __ptext22 052A  
                                __ptext14 22EA                                  __ptext31 14A0  
                                __ptext15 2278                                  __ptext40 1E62  
                                __ptext32 1CAA                                  __ptext24 1132  
                                __ptext16 22F2                                  __ptext41 08B0  
                                __ptext33 1676                                  __ptext25 0FF2  
                                __ptext17 2300                                  __ptext50 1A7E  
                                __ptext42 1F90                                  __ptext34 1592  
                                __ptext26 2152                                  __ptext18 22C6  
                                __ptext51 18EC                                  __ptext43 2304  
                                __ptext35 2180                                  __ptext27 21AC  
                                __ptext19 2290                                  __ptext52 19B6  
                                __ptext44 2078                                  __ptext36 1C00  
                                __ptext28 2032                                  __ptext45 1D44  
                                __ptext37 1268                                  __ptext29 1752  
                                __ptext46 22A6                                  __ptext38 0C1A  
                                __ptext47 2308                                  __ptext39 1ED4  
                                __ptext48 1F34                                  __ptext49 1388  
                   TIMER0_Reach_10ms@flag 002D            __end_of_USBCtrlTrfSetupHandler 1E62  
                           __size_of_main 0024                         ?_USBCtrlEPService 0001  
             __end_of_USB_FT245_Emulation 1ED4                            ??_Blaster_Init 0033  
                      ??_USBCtrlEPService 001B                         _Main_Task_Blaster 0086  
                     _USBCtrlTrfInHandler 18EC                                  _outPipes 0060  
                      ?_Main_Task_Blaster 0001                      _USBCtrlTrfOutHandler 1F34  
                                int$flags 0052                 _USBCtrlEPAllowStatusStage 1A7E  
                     __end_of_TXFIFO_Fill 22EA                       __end_of_TXFIFO_Init 22B8  
                     __end_of_TXFIFO_Read 2032                    ??_USBTransferOnePacket 0031  
                     __end_of_TXFIFO_Room 2278                     _USBCheckVendorRequest 2308  
                     ??_Main_Task_Blaster 008C                 _USBDeferStatusStagePacket 0048  
                              _INTCONbits 000FF2                         _TIMER0_Reach_10ms 22B8  
                    ?_USBCtrlTrfInHandler 0001             USBCtrlTrfTxService@byteToSend 0001  
                                memset@p1 002D                                _JTAG_State 0081  
                        EEPROM_Checksum@i 0092                        ?_TIMER0_Reach_10ms 0001  
                        JTAG_SPI_Put@byte 002E                          ?_USBStallHandler 0001  
                USBStdFeatureReqHandler@p 0019                                  intlevel2 0000  
                  __size_of_USBDeviceInit 0156   __end_of_USER_USB_CALLBACK_EVENT_HANDLER 1F34  
__size_of_USER_USB_CALLBACK_EVENT_HANDLER 0060         ??_USER_USB_CALLBACK_EVENT_HANDLER 0013  
        ?_USER_USB_CALLBACK_EVENT_HANDLER 000D           _USER_USB_CALLBACK_EVENT_HANDLER 1ED4  
                            ?_EEPROM_Read 0001                       ??_TIMER0_Reach_10ms 002D  
               __end_of_Main_Task_Blaster 052A                EEPROM_Checksum@eeprom_data 0090  
                  ??_USBConfigureEndpoint 0002                     ?_USBCtrlTrfOutHandler 0001  
                    __CFG_CPUDIV$NOCLKDIV 000000                       _USBCtrlTrfRxService 1388  
                      _USBWakeFromSuspend 2152                   _USBStdFeatureReqHandler 0C1A  
                     _USBCtrlTrfTxService 19B6                __size_of_SYS_InterruptHigh 007A  
                   __size_of_TXFIFO_Write 001E                 __end_of_TIMER0_Reach_10ms 22C6  
                     ?_USBWakeFromSuspend 0001                     ??_USBCtrlTrfInHandler 0002  
                   _USBAlternateInterface 0050                               _SSPCON1bits 000FC6  
                     USBEnableEndpoint@ep 000C                           _endpoint_number 004D  
                    ?_USBCtrlTrfRxService 0001                  ?_USBCtrlEPAllowDataStage 0001  
                    ?_USBCtrlTrfTxService 0001              _USBStatusStageTimeoutCounter 004B  
                    ??_USBWakeFromSuspend 0015                           EEPROM_Read@addr 008A  
                       _TIMER0_Start_10ms 2290                           EEPROM_Read@data 0089  
              USBTransferOnePacket@handle 008A                                _USB_CD_Ptr 3F8F  
                             _TXFIFO_Fill 22E0                               _TXFIFO_Init 22A6  
                             _TXFIFO_Read 1FEA                        ?_TIMER0_Start_10ms 0001  
                             _TXFIFO_Room 225A                     __size_of_USB_Ept_Init 005A  
                            _TXFIFO_Write 223C  
